ARM GAS  D:\Windows\AppData\Local\Temp\ccjSkH7A.s 			page 1


   1              		.syntax unified
   2              		.cpu cortex-m3
   3              		.fpu softvfp
   4              		.eabi_attribute 20, 1
   5              		.eabi_attribute 21, 1
   6              		.eabi_attribute 23, 3
   7              		.eabi_attribute 24, 1
   8              		.eabi_attribute 25, 1
   9              		.eabi_attribute 26, 1
  10              		.eabi_attribute 30, 1
  11              		.eabi_attribute 34, 1
  12              		.eabi_attribute 18, 4
  13              		.thumb
  14              		.file	"CAN_1_TX_RX_func.c"
  15              		.text
  16              	.Ltext0:
  17              		.cfi_sections	.debug_frame
  18              		.section	.text.CAN_1_SendMsg,"ax",%progbits
  19              		.align	2
  20              		.global	CAN_1_SendMsg
  21              		.thumb
  22              		.thumb_func
  23              		.type	CAN_1_SendMsg, %function
  24              	CAN_1_SendMsg:
  25              	.LFB0:
  26              		.file 1 "Generated_Source\\PSoC5\\CAN_1_TX_RX_func.c"
   1:Generated_Source\PSoC5/CAN_1_TX_RX_func.c **** /*******************************************************************************
   2:Generated_Source\PSoC5/CAN_1_TX_RX_func.c **** * File Name: CAN_1_TX_RX_func.c
   3:Generated_Source\PSoC5/CAN_1_TX_RX_func.c **** * Version 3.0
   4:Generated_Source\PSoC5/CAN_1_TX_RX_func.c **** *
   5:Generated_Source\PSoC5/CAN_1_TX_RX_func.c **** * Description:
   6:Generated_Source\PSoC5/CAN_1_TX_RX_func.c **** *  There are functions process "Full" Receive and Transmit mailboxes:
   7:Generated_Source\PSoC5/CAN_1_TX_RX_func.c **** *     - CAN_1_SendMsg0-7();
   8:Generated_Source\PSoC5/CAN_1_TX_RX_func.c **** *     - CAN_1_ReceiveMsg0-15();
   9:Generated_Source\PSoC5/CAN_1_TX_RX_func.c **** *  Transmission of message, and receive routine for "Basic" mailboxes:
  10:Generated_Source\PSoC5/CAN_1_TX_RX_func.c **** *     - CAN_1_SendMsg();
  11:Generated_Source\PSoC5/CAN_1_TX_RX_func.c **** *     - CAN_1_TxCancel();
  12:Generated_Source\PSoC5/CAN_1_TX_RX_func.c **** *     - CAN_1_ReceiveMsg();
  13:Generated_Source\PSoC5/CAN_1_TX_RX_func.c **** *
  14:Generated_Source\PSoC5/CAN_1_TX_RX_func.c **** *  Note:
  15:Generated_Source\PSoC5/CAN_1_TX_RX_func.c **** *   None
  16:Generated_Source\PSoC5/CAN_1_TX_RX_func.c **** *
  17:Generated_Source\PSoC5/CAN_1_TX_RX_func.c **** ********************************************************************************
  18:Generated_Source\PSoC5/CAN_1_TX_RX_func.c **** * Copyright 2008-2015, Cypress Semiconductor Corporation.  All rights reserved.
  19:Generated_Source\PSoC5/CAN_1_TX_RX_func.c **** * You may use this file only in accordance with the license, terms, conditions,
  20:Generated_Source\PSoC5/CAN_1_TX_RX_func.c **** * disclaimers, and limitations in the end user license agreement accompanying
  21:Generated_Source\PSoC5/CAN_1_TX_RX_func.c **** * the software package with which this file was provided.
  22:Generated_Source\PSoC5/CAN_1_TX_RX_func.c **** *******************************************************************************/
  23:Generated_Source\PSoC5/CAN_1_TX_RX_func.c **** 
  24:Generated_Source\PSoC5/CAN_1_TX_RX_func.c **** #include "CAN_1.h"
  25:Generated_Source\PSoC5/CAN_1_TX_RX_func.c **** #include "cyapicallbacks.h"
  26:Generated_Source\PSoC5/CAN_1_TX_RX_func.c **** 
  27:Generated_Source\PSoC5/CAN_1_TX_RX_func.c **** /* `#START TX_RX_FUNCTION` */
  28:Generated_Source\PSoC5/CAN_1_TX_RX_func.c **** 
  29:Generated_Source\PSoC5/CAN_1_TX_RX_func.c **** /* `#END` */
  30:Generated_Source\PSoC5/CAN_1_TX_RX_func.c **** 
  31:Generated_Source\PSoC5/CAN_1_TX_RX_func.c **** 
ARM GAS  D:\Windows\AppData\Local\Temp\ccjSkH7A.s 			page 2


  32:Generated_Source\PSoC5/CAN_1_TX_RX_func.c **** /*******************************************************************************
  33:Generated_Source\PSoC5/CAN_1_TX_RX_func.c **** * FUNCTION NAME:   CAN_1_SendMsg
  34:Generated_Source\PSoC5/CAN_1_TX_RX_func.c **** ********************************************************************************
  35:Generated_Source\PSoC5/CAN_1_TX_RX_func.c **** *
  36:Generated_Source\PSoC5/CAN_1_TX_RX_func.c **** * Summary:
  37:Generated_Source\PSoC5/CAN_1_TX_RX_func.c **** *  This function is Send Message from one of Basic mailboxes. The function loops
  38:Generated_Source\PSoC5/CAN_1_TX_RX_func.c **** *  through the transmit message buffer designed as Basic CAN mailboxes for the
  39:Generated_Source\PSoC5/CAN_1_TX_RX_func.c **** *  first free available and sends from it. The number of retries is limited.
  40:Generated_Source\PSoC5/CAN_1_TX_RX_func.c **** *
  41:Generated_Source\PSoC5/CAN_1_TX_RX_func.c **** * Parameters:
  42:Generated_Source\PSoC5/CAN_1_TX_RX_func.c **** *  message: The pointer to a structure that contains all required data to send
  43:Generated_Source\PSoC5/CAN_1_TX_RX_func.c **** *           messages.
  44:Generated_Source\PSoC5/CAN_1_TX_RX_func.c **** *
  45:Generated_Source\PSoC5/CAN_1_TX_RX_func.c **** * Return:
  46:Generated_Source\PSoC5/CAN_1_TX_RX_func.c **** *  Indication if message has been sent.
  47:Generated_Source\PSoC5/CAN_1_TX_RX_func.c **** *   Define                             Description
  48:Generated_Source\PSoC5/CAN_1_TX_RX_func.c **** *    CYRET_SUCCESS                      The function passed successfully
  49:Generated_Source\PSoC5/CAN_1_TX_RX_func.c **** *    CAN_1_FAIL              The function failed
  50:Generated_Source\PSoC5/CAN_1_TX_RX_func.c **** *
  51:Generated_Source\PSoC5/CAN_1_TX_RX_func.c **** *******************************************************************************/
  52:Generated_Source\PSoC5/CAN_1_TX_RX_func.c **** uint8 CAN_1_SendMsg(const CAN_1_TX_MSG *message) 
  53:Generated_Source\PSoC5/CAN_1_TX_RX_func.c **** {
  27              		.loc 1 53 0
  28              		.cfi_startproc
  29              		@ args = 0, pretend = 0, frame = 0
  30              		@ frame_needed = 0, uses_anonymous_args = 0
  31              	.LVL0:
  32 0000 F0B5     		push	{r4, r5, r6, r7, lr}
  33              		.cfi_def_cfa_offset 20
  34              		.cfi_offset 4, -20
  35              		.cfi_offset 5, -16
  36              		.cfi_offset 6, -12
  37              		.cfi_offset 7, -8
  38              		.cfi_offset 14, -4
  39              	.LVL1:
  54:Generated_Source\PSoC5/CAN_1_TX_RX_func.c ****     uint8 i, j, shift;
  55:Generated_Source\PSoC5/CAN_1_TX_RX_func.c ****     uint8 retry = 0u;
  56:Generated_Source\PSoC5/CAN_1_TX_RX_func.c ****     uint8 result = CAN_1_FAIL;
  40              		.loc 1 56 0
  41 0002 0122     		movs	r2, #1
  55:Generated_Source\PSoC5/CAN_1_TX_RX_func.c ****     uint8 result = CAN_1_FAIL;
  42              		.loc 1 55 0
  43 0004 0027     		movs	r7, #0
  57:Generated_Source\PSoC5/CAN_1_TX_RX_func.c ****     uint32 regTemp;
  58:Generated_Source\PSoC5/CAN_1_TX_RX_func.c **** 
  59:Generated_Source\PSoC5/CAN_1_TX_RX_func.c ****     while (retry < CAN_1_RETRY_NUMBER)
  44              		.loc 1 59 0
  45 0006 5AE0     		b	.L2
  46              	.LVL2:
  47              	.L16:
  60:Generated_Source\PSoC5/CAN_1_TX_RX_func.c ****     {
  61:Generated_Source\PSoC5/CAN_1_TX_RX_func.c ****         shift = 1u;    /* Start from first mailbox */
  62:Generated_Source\PSoC5/CAN_1_TX_RX_func.c ****         for (i = 0u; i < CAN_1_NUMBER_OF_TX_MAILBOXES; i++)
  63:Generated_Source\PSoC5/CAN_1_TX_RX_func.c ****         {
  64:Generated_Source\PSoC5/CAN_1_TX_RX_func.c ****             /* Find Basic TX mailboxes */
  65:Generated_Source\PSoC5/CAN_1_TX_RX_func.c ****             if ((CAN_1_TX_MAILBOX_TYPE & shift) == 0u)
  66:Generated_Source\PSoC5/CAN_1_TX_RX_func.c ****             {
ARM GAS  D:\Windows\AppData\Local\Temp\ccjSkH7A.s 			page 3


  67:Generated_Source\PSoC5/CAN_1_TX_RX_func.c ****                 /* Find free mailbox */
  68:Generated_Source\PSoC5/CAN_1_TX_RX_func.c ****                 #if (CY_PSOC3 || CY_PSOC5)
  69:Generated_Source\PSoC5/CAN_1_TX_RX_func.c ****                     if ((CAN_1_BUF_SR_REG.byte[2] & shift) == 0u)
  48              		.loc 1 69 0
  49 0008 2F4B     		ldr	r3, .L22
  50 000a 9B78     		ldrb	r3, [r3, #2]	@ zero_extendqisi2
  51 000c 3342     		tst	r3, r6
  52 000e 49D1     		bne	.L3
  53              	.LVL3:
  70:Generated_Source\PSoC5/CAN_1_TX_RX_func.c ****                 #else  /* CY_PSOC4 */
  71:Generated_Source\PSoC5/CAN_1_TX_RX_func.c ****                     if ((CAN_1_BUF_SR_REG &
  72:Generated_Source\PSoC5/CAN_1_TX_RX_func.c ****                         (uint32) ((uint32) shift << CAN_1_TWO_BYTE_OFFSET)) == 0u)
  73:Generated_Source\PSoC5/CAN_1_TX_RX_func.c ****                 #endif /* CY_PSOC3 || CY_PSOC5 */
  74:Generated_Source\PSoC5/CAN_1_TX_RX_func.c ****                     {
  75:Generated_Source\PSoC5/CAN_1_TX_RX_func.c ****                         regTemp = 0u;
  76:Generated_Source\PSoC5/CAN_1_TX_RX_func.c **** 
  77:Generated_Source\PSoC5/CAN_1_TX_RX_func.c ****                         /* Set message parameters */
  78:Generated_Source\PSoC5/CAN_1_TX_RX_func.c ****                         if (message->rtr != CAN_1_STANDARD_MESSAGE)
  54              		.loc 1 78 0
  55 0010 0379     		ldrb	r3, [r0, #4]	@ zero_extendqisi2
  56 0012 0BB1     		cbz	r3, .L4
  79:Generated_Source\PSoC5/CAN_1_TX_RX_func.c ****                         {
  80:Generated_Source\PSoC5/CAN_1_TX_RX_func.c ****                             regTemp = CAN_1_TX_RTR_MASK;    /* RTR message Enable */
  57              		.loc 1 80 0
  58 0014 4FF40013 		mov	r3, #2097152
  59              	.L4:
  60              	.LVL4:
  81:Generated_Source\PSoC5/CAN_1_TX_RX_func.c ****                         }
  82:Generated_Source\PSoC5/CAN_1_TX_RX_func.c **** 
  83:Generated_Source\PSoC5/CAN_1_TX_RX_func.c ****                         if (message->ide == CAN_1_STANDARD_MESSAGE)
  61              		.loc 1 83 0
  62 0018 4279     		ldrb	r2, [r0, #5]	@ zero_extendqisi2
  63              	.LVL5:
  64 001a 32B9     		cbnz	r2, .L5
  84:Generated_Source\PSoC5/CAN_1_TX_RX_func.c ****                         {
  85:Generated_Source\PSoC5/CAN_1_TX_RX_func.c ****                             CAN_1_SET_TX_ID_STANDARD_MSG(i, message->id);
  65              		.loc 1 85 0
  66 001c 2B4A     		ldr	r2, .L22+4
  67 001e 02EB0412 		add	r2, r2, r4, lsl #4
  68 0022 0168     		ldr	r1, [r0]
  69 0024 4905     		lsls	r1, r1, #21
  70 0026 5160     		str	r1, [r2, #4]
  71 0028 07E0     		b	.L6
  72              	.L5:
  86:Generated_Source\PSoC5/CAN_1_TX_RX_func.c ****                         }
  87:Generated_Source\PSoC5/CAN_1_TX_RX_func.c ****                         else
  88:Generated_Source\PSoC5/CAN_1_TX_RX_func.c ****                         {
  89:Generated_Source\PSoC5/CAN_1_TX_RX_func.c ****                             regTemp |= CAN_1_TX_IDE_MASK;
  73              		.loc 1 89 0
  74 002a 43F48013 		orr	r3, r3, #1048576
  75              	.LVL6:
  90:Generated_Source\PSoC5/CAN_1_TX_RX_func.c ****                             CAN_1_SET_TX_ID_EXTENDED_MSG(i, message->id);
  76              		.loc 1 90 0
  77 002e 274A     		ldr	r2, .L22+4
  78 0030 02EB0412 		add	r2, r2, r4, lsl #4
  79 0034 0168     		ldr	r1, [r0]
  80 0036 C900     		lsls	r1, r1, #3
ARM GAS  D:\Windows\AppData\Local\Temp\ccjSkH7A.s 			page 4


  81 0038 5160     		str	r1, [r2, #4]
  82              	.L6:
  91:Generated_Source\PSoC5/CAN_1_TX_RX_func.c ****                         }
  92:Generated_Source\PSoC5/CAN_1_TX_RX_func.c **** 
  93:Generated_Source\PSoC5/CAN_1_TX_RX_func.c ****                         if (message->dlc < CAN_1_TX_DLC_MAX_VALUE)
  83              		.loc 1 93 0
  84 003a 90F806E0 		ldrb	lr, [r0, #6]	@ zero_extendqisi2
  85 003e BEF1070F 		cmp	lr, #7
  86 0042 02D8     		bhi	.L7
  94:Generated_Source\PSoC5/CAN_1_TX_RX_func.c ****                         {
  95:Generated_Source\PSoC5/CAN_1_TX_RX_func.c ****                             regTemp |= ((uint32) message->dlc) << CAN_1_TWO_BYTE_OFFSET;
  87              		.loc 1 95 0
  88 0044 43EA0E4E 		orr	lr, r3, lr, lsl #16
  89              	.LVL7:
  90 0048 01E0     		b	.L8
  91              	.LVL8:
  92              	.L7:
  96:Generated_Source\PSoC5/CAN_1_TX_RX_func.c ****                         }
  97:Generated_Source\PSoC5/CAN_1_TX_RX_func.c ****                         else
  98:Generated_Source\PSoC5/CAN_1_TX_RX_func.c ****                         {
  99:Generated_Source\PSoC5/CAN_1_TX_RX_func.c ****                             regTemp |= CAN_1_TX_DLC_UPPER_VALUE;
  93              		.loc 1 99 0
  94 004a 43F4002E 		orr	lr, r3, #524288
  95              	.LVL9:
  96              	.L8:
 100:Generated_Source\PSoC5/CAN_1_TX_RX_func.c ****                         }
 101:Generated_Source\PSoC5/CAN_1_TX_RX_func.c **** 
 102:Generated_Source\PSoC5/CAN_1_TX_RX_func.c ****                         if (message->irq != CAN_1_TRANSMIT_INT_DISABLE)
  97              		.loc 1 102 0
  98 004e C379     		ldrb	r3, [r0, #7]	@ zero_extendqisi2
  99 0050 0BB1     		cbz	r3, .L9
 103:Generated_Source\PSoC5/CAN_1_TX_RX_func.c ****                         {
 104:Generated_Source\PSoC5/CAN_1_TX_RX_func.c ****                             regTemp |= CAN_1_TX_INT_ENABLE_MASK;    /* Transmit Interrupt Enable */
 100              		.loc 1 104 0
 101 0052 4EF0040E 		orr	lr, lr, #4
 102              	.LVL10:
 103              	.L9:
 105:Generated_Source\PSoC5/CAN_1_TX_RX_func.c ****                         }
 106:Generated_Source\PSoC5/CAN_1_TX_RX_func.c **** 
 107:Generated_Source\PSoC5/CAN_1_TX_RX_func.c ****                         for (j = 0u; (j < message->dlc) && (j < CAN_1_TX_DLC_MAX_VALUE); j++)
 104              		.loc 1 107 0
 105 0056 0023     		movs	r3, #0
 106 0058 0FE0     		b	.L10
 107              	.LVL11:
 108              	.L14:
 108:Generated_Source\PSoC5/CAN_1_TX_RX_func.c ****                         {
 109:Generated_Source\PSoC5/CAN_1_TX_RX_func.c ****                             #if (CY_PSOC3 || CY_PSOC5)
 110:Generated_Source\PSoC5/CAN_1_TX_RX_func.c ****                                 CAN_1_TX_DATA_BYTE(i, j) = message->msg->byte[j];
 109              		.loc 1 110 0
 110 005a 1C4A     		ldr	r2, .L22+4
 111 005c 02EB0411 		add	r1, r2, r4, lsl #4
 112 0060 032B     		cmp	r3, #3
 113 0062 02D9     		bls	.L11
 114              		.loc 1 110 0 is_stmt 0 discriminator 1
 115 0064 C3F10B02 		rsb	r2, r3, #11
 116 0068 01E0     		b	.L12
 117              	.L11:
ARM GAS  D:\Windows\AppData\Local\Temp\ccjSkH7A.s 			page 5


 118              		.loc 1 110 0 discriminator 2
 119 006a C3F10302 		rsb	r2, r3, #3
 120              	.L12:
 121              		.loc 1 110 0 discriminator 4
 122 006e 8568     		ldr	r5, [r0, #8]
 123 0070 ED5C     		ldrb	r5, [r5, r3]	@ zero_extendqisi2
 124 0072 0A44     		add	r2, r2, r1
 125 0074 1572     		strb	r5, [r2, #8]
 107:Generated_Source\PSoC5/CAN_1_TX_RX_func.c ****                         {
 126              		.loc 1 107 0 is_stmt 1 discriminator 4
 127 0076 0133     		adds	r3, r3, #1
 128              	.LVL12:
 129 0078 DBB2     		uxtb	r3, r3
 130              	.LVL13:
 131              	.L10:
 107:Generated_Source\PSoC5/CAN_1_TX_RX_func.c ****                         {
 132              		.loc 1 107 0 is_stmt 0 discriminator 2
 133 007a 8279     		ldrb	r2, [r0, #6]	@ zero_extendqisi2
 134 007c 9A42     		cmp	r2, r3
 135 007e 01D9     		bls	.L13
 107:Generated_Source\PSoC5/CAN_1_TX_RX_func.c ****                         {
 136              		.loc 1 107 0 discriminator 3
 137 0080 072B     		cmp	r3, #7
 138 0082 EAD9     		bls	.L14
 139              	.L13:
 111:Generated_Source\PSoC5/CAN_1_TX_RX_func.c ****                             #else /* CY_PSOC4 */
 112:Generated_Source\PSoC5/CAN_1_TX_RX_func.c ****                                 CAN_1_TX_DATA_BYTE(i, j, message->msg->byte[j]);
 113:Generated_Source\PSoC5/CAN_1_TX_RX_func.c ****                             #endif /* CY_PSOC3 || CY_PSOC5 */
 114:Generated_Source\PSoC5/CAN_1_TX_RX_func.c ****                         }
 115:Generated_Source\PSoC5/CAN_1_TX_RX_func.c **** 
 116:Generated_Source\PSoC5/CAN_1_TX_RX_func.c ****                         /* Disable isr */
 117:Generated_Source\PSoC5/CAN_1_TX_RX_func.c ****     CyIntDisable(CAN_1_ISR_NUMBER);
 140              		.loc 1 117 0 is_stmt 1
 141 0084 4FF48031 		mov	r1, #65536
 142 0088 114B     		ldr	r3, .L22+8
 143              	.LVL14:
 144 008a 1960     		str	r1, [r3]
 118:Generated_Source\PSoC5/CAN_1_TX_RX_func.c **** 
 119:Generated_Source\PSoC5/CAN_1_TX_RX_func.c ****                         /* WPN[23] and WPN[3] set to 1 for write to CAN Control reg */
 120:Generated_Source\PSoC5/CAN_1_TX_RX_func.c ****                         CY_SET_REG32(CAN_1_TX_CMD_PTR(i), (regTemp | CAN_1_TX_WPN_SET));
 145              		.loc 1 120 0
 146 008c 2201     		lsls	r2, r4, #4
 147 008e 0F4D     		ldr	r5, .L22+4
 148 0090 4EF40003 		orr	r3, lr, #8388608
 149 0094 43F00803 		orr	r3, r3, #8
 150 0098 5351     		str	r3, [r2, r5]
 121:Generated_Source\PSoC5/CAN_1_TX_RX_func.c **** 
 122:Generated_Source\PSoC5/CAN_1_TX_RX_func.c ****                         #if (CY_PSOC3 || CY_PSOC5)
 123:Generated_Source\PSoC5/CAN_1_TX_RX_func.c ****                             CY_SET_REG32(CAN_1_TX_CMD_PTR(i), CAN_1_SEND_MESSAGE);
 151              		.loc 1 123 0
 152 009a 0123     		movs	r3, #1
 153 009c 5351     		str	r3, [r2, r5]
 124:Generated_Source\PSoC5/CAN_1_TX_RX_func.c ****                         #else /* CY_PSOC4 */
 125:Generated_Source\PSoC5/CAN_1_TX_RX_func.c ****                             if (message->sst != CAN_1_STANDARD_MESSAGE)
 126:Generated_Source\PSoC5/CAN_1_TX_RX_func.c ****                             {
 127:Generated_Source\PSoC5/CAN_1_TX_RX_func.c ****                                 /* Single Shot Transmission */
 128:Generated_Source\PSoC5/CAN_1_TX_RX_func.c ****                                 CAN_1_TX_CMD_REG(i) |= CAN_1_SEND_MESSAGE |
ARM GAS  D:\Windows\AppData\Local\Temp\ccjSkH7A.s 			page 6


 129:Generated_Source\PSoC5/CAN_1_TX_RX_func.c ****                                 CAN_1_TX_ABORT_MASK;
 130:Generated_Source\PSoC5/CAN_1_TX_RX_func.c ****                             }
 131:Generated_Source\PSoC5/CAN_1_TX_RX_func.c ****                             else
 132:Generated_Source\PSoC5/CAN_1_TX_RX_func.c ****                             {
 133:Generated_Source\PSoC5/CAN_1_TX_RX_func.c ****                                 CAN_1_TX_CMD_REG(i) |= CAN_1_SEND_MESSAGE;
 134:Generated_Source\PSoC5/CAN_1_TX_RX_func.c ****                             }
 135:Generated_Source\PSoC5/CAN_1_TX_RX_func.c ****                         #endif /* CY_PSOC3 || CY_PSOC5 */
 136:Generated_Source\PSoC5/CAN_1_TX_RX_func.c **** 
 137:Generated_Source\PSoC5/CAN_1_TX_RX_func.c ****                         /* Enable isr */
 138:Generated_Source\PSoC5/CAN_1_TX_RX_func.c ****     CyIntEnable(CAN_1_ISR_NUMBER);
 154              		.loc 1 138 0
 155 009e 0D4B     		ldr	r3, .L22+12
 156 00a0 1960     		str	r1, [r3]
 157              	.LVL15:
 139:Generated_Source\PSoC5/CAN_1_TX_RX_func.c **** 
 140:Generated_Source\PSoC5/CAN_1_TX_RX_func.c ****                         result = CYRET_SUCCESS;
 158              		.loc 1 140 0
 159 00a2 0022     		movs	r2, #0
 160              	.LVL16:
 161              	.L3:
 141:Generated_Source\PSoC5/CAN_1_TX_RX_func.c ****                     }
 142:Generated_Source\PSoC5/CAN_1_TX_RX_func.c ****             }
 143:Generated_Source\PSoC5/CAN_1_TX_RX_func.c ****             shift <<= 1u;
 162              		.loc 1 143 0
 163 00a4 7600     		lsls	r6, r6, #1
 164              	.LVL17:
 165 00a6 F6B2     		uxtb	r6, r6
 166              	.LVL18:
 144:Generated_Source\PSoC5/CAN_1_TX_RX_func.c ****             if (result == CYRET_SUCCESS)
 167              		.loc 1 144 0
 168 00a8 32B1     		cbz	r2, .L15
  62:Generated_Source\PSoC5/CAN_1_TX_RX_func.c ****         {
 169              		.loc 1 62 0 discriminator 2
 170 00aa 0134     		adds	r4, r4, #1
 171              	.LVL19:
 172 00ac E4B2     		uxtb	r4, r4
 173              	.LVL20:
 174 00ae 01E0     		b	.L18
 175              	.LVL21:
 176              	.L20:
 177 00b0 0126     		movs	r6, #1
 178 00b2 0024     		movs	r4, #0
 179              	.L18:
 180              	.LVL22:
  62:Generated_Source\PSoC5/CAN_1_TX_RX_func.c ****         {
 181              		.loc 1 62 0 is_stmt 0 discriminator 1
 182 00b4 072C     		cmp	r4, #7
 183 00b6 A7D9     		bls	.L16
 184              	.L15:
 145:Generated_Source\PSoC5/CAN_1_TX_RX_func.c ****             {
 146:Generated_Source\PSoC5/CAN_1_TX_RX_func.c ****                 break;
 147:Generated_Source\PSoC5/CAN_1_TX_RX_func.c ****             }
 148:Generated_Source\PSoC5/CAN_1_TX_RX_func.c ****         }
 149:Generated_Source\PSoC5/CAN_1_TX_RX_func.c ****         if (result == CYRET_SUCCESS)
 185              		.loc 1 149 0 is_stmt 1
 186 00b8 1AB1     		cbz	r2, .L17
 150:Generated_Source\PSoC5/CAN_1_TX_RX_func.c ****         {
ARM GAS  D:\Windows\AppData\Local\Temp\ccjSkH7A.s 			page 7


 151:Generated_Source\PSoC5/CAN_1_TX_RX_func.c ****             break;
 152:Generated_Source\PSoC5/CAN_1_TX_RX_func.c ****         }
 153:Generated_Source\PSoC5/CAN_1_TX_RX_func.c ****         else
 154:Generated_Source\PSoC5/CAN_1_TX_RX_func.c ****         {
 155:Generated_Source\PSoC5/CAN_1_TX_RX_func.c ****             retry++;
 187              		.loc 1 155 0
 188 00ba 0137     		adds	r7, r7, #1
 189              	.LVL23:
 190 00bc FFB2     		uxtb	r7, r7
 191              	.LVL24:
 192              	.L2:
  59:Generated_Source\PSoC5/CAN_1_TX_RX_func.c ****     {
 193              		.loc 1 59 0
 194 00be 022F     		cmp	r7, #2
 195 00c0 F6D9     		bls	.L20
 196              	.L17:
 156:Generated_Source\PSoC5/CAN_1_TX_RX_func.c ****         }
 157:Generated_Source\PSoC5/CAN_1_TX_RX_func.c ****     }
 158:Generated_Source\PSoC5/CAN_1_TX_RX_func.c **** 
 159:Generated_Source\PSoC5/CAN_1_TX_RX_func.c ****     return (result);
 160:Generated_Source\PSoC5/CAN_1_TX_RX_func.c **** }
 197              		.loc 1 160 0
 198 00c2 1046     		mov	r0, r2
 199              	.LVL25:
 200 00c4 F0BD     		pop	{r4, r5, r6, r7, pc}
 201              	.LVL26:
 202              	.L23:
 203 00c6 00BF     		.align	2
 204              	.L22:
 205 00c8 08A00040 		.word	1073782792
 206 00cc 20A00040 		.word	1073782816
 207 00d0 80E100E0 		.word	-536813184
 208 00d4 00E100E0 		.word	-536813312
 209              		.cfi_endproc
 210              	.LFE0:
 211              		.size	CAN_1_SendMsg, .-CAN_1_SendMsg
 212              		.section	.text.CAN_1_TxCancel,"ax",%progbits
 213              		.align	2
 214              		.global	CAN_1_TxCancel
 215              		.thumb
 216              		.thumb_func
 217              		.type	CAN_1_TxCancel, %function
 218              	CAN_1_TxCancel:
 219              	.LFB1:
 161:Generated_Source\PSoC5/CAN_1_TX_RX_func.c **** 
 162:Generated_Source\PSoC5/CAN_1_TX_RX_func.c **** 
 163:Generated_Source\PSoC5/CAN_1_TX_RX_func.c **** /*******************************************************************************
 164:Generated_Source\PSoC5/CAN_1_TX_RX_func.c **** * FUNCTION NAME:   CAN_1_TxCancel
 165:Generated_Source\PSoC5/CAN_1_TX_RX_func.c **** ********************************************************************************
 166:Generated_Source\PSoC5/CAN_1_TX_RX_func.c **** *
 167:Generated_Source\PSoC5/CAN_1_TX_RX_func.c **** * Summary:
 168:Generated_Source\PSoC5/CAN_1_TX_RX_func.c **** *  This function cancels transmission of a message that has been queued to be
 169:Generated_Source\PSoC5/CAN_1_TX_RX_func.c **** *  transmitted. Values between 0 and 7 are valid.
 170:Generated_Source\PSoC5/CAN_1_TX_RX_func.c **** *
 171:Generated_Source\PSoC5/CAN_1_TX_RX_func.c **** * Parameters:
 172:Generated_Source\PSoC5/CAN_1_TX_RX_func.c **** *  bufferId: The mailbox number.
 173:Generated_Source\PSoC5/CAN_1_TX_RX_func.c **** *
ARM GAS  D:\Windows\AppData\Local\Temp\ccjSkH7A.s 			page 8


 174:Generated_Source\PSoC5/CAN_1_TX_RX_func.c **** * Return:
 175:Generated_Source\PSoC5/CAN_1_TX_RX_func.c **** *  None.
 176:Generated_Source\PSoC5/CAN_1_TX_RX_func.c **** *
 177:Generated_Source\PSoC5/CAN_1_TX_RX_func.c **** *******************************************************************************/
 178:Generated_Source\PSoC5/CAN_1_TX_RX_func.c **** void CAN_1_TxCancel(uint8 bufferId) 
 179:Generated_Source\PSoC5/CAN_1_TX_RX_func.c **** {
 220              		.loc 1 179 0
 221              		.cfi_startproc
 222              		@ args = 0, pretend = 0, frame = 0
 223              		@ frame_needed = 0, uses_anonymous_args = 0
 224              		@ link register save eliminated.
 225              	.LVL27:
 180:Generated_Source\PSoC5/CAN_1_TX_RX_func.c ****     if (bufferId < CAN_1_NUMBER_OF_TX_MAILBOXES)
 226              		.loc 1 180 0
 227 0000 0728     		cmp	r0, #7
 228 0002 07D8     		bhi	.L24
 181:Generated_Source\PSoC5/CAN_1_TX_RX_func.c ****     {
 182:Generated_Source\PSoC5/CAN_1_TX_RX_func.c ****         CAN_1_TX_ABORT_MESSAGE(bufferId);
 229              		.loc 1 182 0
 230 0004 0001     		lsls	r0, r0, #4
 231              	.LVL28:
 232 0006 044A     		ldr	r2, .L26
 233 0008 835C     		ldrb	r3, [r0, r2]	@ zero_extendqisi2
 234 000a 03F0FC03 		and	r3, r3, #252
 235 000e 43F00203 		orr	r3, r3, #2
 236 0012 8354     		strb	r3, [r0, r2]
 237              	.L24:
 238 0014 7047     		bx	lr
 239              	.L27:
 240 0016 00BF     		.align	2
 241              	.L26:
 242 0018 20A00040 		.word	1073782816
 243              		.cfi_endproc
 244              	.LFE1:
 245              		.size	CAN_1_TxCancel, .-CAN_1_TxCancel
 246              		.section	.text.CAN_1_ReceiveMsg,"ax",%progbits
 247              		.align	2
 248              		.global	CAN_1_ReceiveMsg
 249              		.thumb
 250              		.thumb_func
 251              		.type	CAN_1_ReceiveMsg, %function
 252              	CAN_1_ReceiveMsg:
 253              	.LFB2:
 183:Generated_Source\PSoC5/CAN_1_TX_RX_func.c ****     }
 184:Generated_Source\PSoC5/CAN_1_TX_RX_func.c **** }
 185:Generated_Source\PSoC5/CAN_1_TX_RX_func.c **** 
 186:Generated_Source\PSoC5/CAN_1_TX_RX_func.c **** 
 187:Generated_Source\PSoC5/CAN_1_TX_RX_func.c **** #if (CAN_1_TX0_FUNC_ENABLE)
 188:Generated_Source\PSoC5/CAN_1_TX_RX_func.c ****     /*******************************************************************************
 189:Generated_Source\PSoC5/CAN_1_TX_RX_func.c ****     * FUNCTION NAME:   CAN_1_SendMsg0
 190:Generated_Source\PSoC5/CAN_1_TX_RX_func.c ****     ********************************************************************************
 191:Generated_Source\PSoC5/CAN_1_TX_RX_func.c ****     *
 192:Generated_Source\PSoC5/CAN_1_TX_RX_func.c ****     * Summary:
 193:Generated_Source\PSoC5/CAN_1_TX_RX_func.c ****     *  This function is the entry point to Transmit Message 0. The function checks
 194:Generated_Source\PSoC5/CAN_1_TX_RX_func.c ****     *  if mailbox 0 doesn't already have un-transmitted messages waiting for
 195:Generated_Source\PSoC5/CAN_1_TX_RX_func.c ****     *  arbitration. If not initiate transmission of the message.
 196:Generated_Source\PSoC5/CAN_1_TX_RX_func.c ****     *  Generated only for the Transmit mailbox designed as Full.
ARM GAS  D:\Windows\AppData\Local\Temp\ccjSkH7A.s 			page 9


 197:Generated_Source\PSoC5/CAN_1_TX_RX_func.c ****     *
 198:Generated_Source\PSoC5/CAN_1_TX_RX_func.c ****     * Parameters:
 199:Generated_Source\PSoC5/CAN_1_TX_RX_func.c ****     *  None.
 200:Generated_Source\PSoC5/CAN_1_TX_RX_func.c ****     *
 201:Generated_Source\PSoC5/CAN_1_TX_RX_func.c ****     * Return:
 202:Generated_Source\PSoC5/CAN_1_TX_RX_func.c ****     *  Indication if Message has been sent.
 203:Generated_Source\PSoC5/CAN_1_TX_RX_func.c ****     *   Define                             Description
 204:Generated_Source\PSoC5/CAN_1_TX_RX_func.c ****     *    CYRET_SUCCESS                      The function passed successfully
 205:Generated_Source\PSoC5/CAN_1_TX_RX_func.c ****     *    CAN_1_FAIL              The function failed
 206:Generated_Source\PSoC5/CAN_1_TX_RX_func.c ****     *
 207:Generated_Source\PSoC5/CAN_1_TX_RX_func.c ****     *******************************************************************************/
 208:Generated_Source\PSoC5/CAN_1_TX_RX_func.c ****     uint8 CAN_1_SendMsg0(void) 
 209:Generated_Source\PSoC5/CAN_1_TX_RX_func.c ****     {
 210:Generated_Source\PSoC5/CAN_1_TX_RX_func.c ****         uint8 result = CYRET_SUCCESS;
 211:Generated_Source\PSoC5/CAN_1_TX_RX_func.c **** 
 212:Generated_Source\PSoC5/CAN_1_TX_RX_func.c ****         #if (CY_PSOC3 || CY_PSOC5)
 213:Generated_Source\PSoC5/CAN_1_TX_RX_func.c ****             if ((CAN_1_TX[0u].txcmd.byte[0u] & CAN_1_TX_REQUEST_PENDING) != 0u)
 214:Generated_Source\PSoC5/CAN_1_TX_RX_func.c ****         #else  /* CY_PSOC4 */
 215:Generated_Source\PSoC5/CAN_1_TX_RX_func.c ****             if ((CAN_1_TX_CMD_REG(0u) & CAN_1_TX_REQUEST_PENDING) != 0u)
 216:Generated_Source\PSoC5/CAN_1_TX_RX_func.c ****         #endif /* CY_PSOC3 || CY_PSOC5 */
 217:Generated_Source\PSoC5/CAN_1_TX_RX_func.c ****             {
 218:Generated_Source\PSoC5/CAN_1_TX_RX_func.c ****                 result = CAN_1_FAIL;
 219:Generated_Source\PSoC5/CAN_1_TX_RX_func.c ****             }
 220:Generated_Source\PSoC5/CAN_1_TX_RX_func.c ****             else
 221:Generated_Source\PSoC5/CAN_1_TX_RX_func.c ****             {
 222:Generated_Source\PSoC5/CAN_1_TX_RX_func.c ****                 /* `#START MESSAGE_0_TRASMITTED` */
 223:Generated_Source\PSoC5/CAN_1_TX_RX_func.c **** 
 224:Generated_Source\PSoC5/CAN_1_TX_RX_func.c ****                 /* `#END` */
 225:Generated_Source\PSoC5/CAN_1_TX_RX_func.c **** 
 226:Generated_Source\PSoC5/CAN_1_TX_RX_func.c ****                 #ifdef CAN_1_SEND_MSG_0_CALLBACK
 227:Generated_Source\PSoC5/CAN_1_TX_RX_func.c ****                     CAN_1_SendMsg_0_Callback();
 228:Generated_Source\PSoC5/CAN_1_TX_RX_func.c ****                 #endif /* CAN_1_SEND_MSG_0_CALLBACK */
 229:Generated_Source\PSoC5/CAN_1_TX_RX_func.c **** 
 230:Generated_Source\PSoC5/CAN_1_TX_RX_func.c ****                 CY_SET_REG32(CAN_1_TX_CMD_PTR(0u),
 231:Generated_Source\PSoC5/CAN_1_TX_RX_func.c ****                 CY_GET_REG32(CAN_1_TX_CMD_PTR(0u)) | CAN_1_SEND_MESSAGE);
 232:Generated_Source\PSoC5/CAN_1_TX_RX_func.c ****             }
 233:Generated_Source\PSoC5/CAN_1_TX_RX_func.c **** 
 234:Generated_Source\PSoC5/CAN_1_TX_RX_func.c ****         return (result);
 235:Generated_Source\PSoC5/CAN_1_TX_RX_func.c ****     }
 236:Generated_Source\PSoC5/CAN_1_TX_RX_func.c **** #endif /* CAN_1_TX0_FUNC_ENABLE */
 237:Generated_Source\PSoC5/CAN_1_TX_RX_func.c **** 
 238:Generated_Source\PSoC5/CAN_1_TX_RX_func.c **** 
 239:Generated_Source\PSoC5/CAN_1_TX_RX_func.c **** #if (CAN_1_TX1_FUNC_ENABLE)
 240:Generated_Source\PSoC5/CAN_1_TX_RX_func.c ****     /*******************************************************************************
 241:Generated_Source\PSoC5/CAN_1_TX_RX_func.c ****     * FUNCTION NAME:   CAN_1_SendMsg1
 242:Generated_Source\PSoC5/CAN_1_TX_RX_func.c ****     ********************************************************************************
 243:Generated_Source\PSoC5/CAN_1_TX_RX_func.c ****     *
 244:Generated_Source\PSoC5/CAN_1_TX_RX_func.c ****     * Summary:
 245:Generated_Source\PSoC5/CAN_1_TX_RX_func.c ****     *  This function is the entry point to Transmit Message 1. The function checks
 246:Generated_Source\PSoC5/CAN_1_TX_RX_func.c ****     *  if mailbox 1 doesn't already have un-transmitted messages waiting for
 247:Generated_Source\PSoC5/CAN_1_TX_RX_func.c ****     *  arbitration. If not initiate transmission of the message.
 248:Generated_Source\PSoC5/CAN_1_TX_RX_func.c ****     *  Generated only for the Transmit mailbox designed as Full.
 249:Generated_Source\PSoC5/CAN_1_TX_RX_func.c ****     *
 250:Generated_Source\PSoC5/CAN_1_TX_RX_func.c ****     * Parameters:
 251:Generated_Source\PSoC5/CAN_1_TX_RX_func.c ****     *  None.
 252:Generated_Source\PSoC5/CAN_1_TX_RX_func.c ****     *
 253:Generated_Source\PSoC5/CAN_1_TX_RX_func.c ****     * Return:
ARM GAS  D:\Windows\AppData\Local\Temp\ccjSkH7A.s 			page 10


 254:Generated_Source\PSoC5/CAN_1_TX_RX_func.c ****     *  Indication if Message has been sent.
 255:Generated_Source\PSoC5/CAN_1_TX_RX_func.c ****     *   Define                             Description
 256:Generated_Source\PSoC5/CAN_1_TX_RX_func.c ****     *    CYRET_SUCCESS                      The function passed successfully
 257:Generated_Source\PSoC5/CAN_1_TX_RX_func.c ****     *    CAN_1_FAIL              The function failed
 258:Generated_Source\PSoC5/CAN_1_TX_RX_func.c ****     *
 259:Generated_Source\PSoC5/CAN_1_TX_RX_func.c ****     *******************************************************************************/
 260:Generated_Source\PSoC5/CAN_1_TX_RX_func.c ****     uint8 CAN_1_SendMsg1(void) 
 261:Generated_Source\PSoC5/CAN_1_TX_RX_func.c ****     {
 262:Generated_Source\PSoC5/CAN_1_TX_RX_func.c ****         uint8 result = CYRET_SUCCESS;
 263:Generated_Source\PSoC5/CAN_1_TX_RX_func.c **** 
 264:Generated_Source\PSoC5/CAN_1_TX_RX_func.c ****         #if (CY_PSOC3 || CY_PSOC5)
 265:Generated_Source\PSoC5/CAN_1_TX_RX_func.c ****             if ((CAN_1_TX[1u].txcmd.byte[0u] & CAN_1_TX_REQUEST_PENDING) != 0u)
 266:Generated_Source\PSoC5/CAN_1_TX_RX_func.c ****         #else  /* CY_PSOC4 */
 267:Generated_Source\PSoC5/CAN_1_TX_RX_func.c ****             if ((CAN_1_TX_CMD_REG(1u) & CAN_1_TX_REQUEST_PENDING) != 0u)
 268:Generated_Source\PSoC5/CAN_1_TX_RX_func.c ****         #endif /* CY_PSOC3 || CY_PSOC5 */
 269:Generated_Source\PSoC5/CAN_1_TX_RX_func.c ****             {
 270:Generated_Source\PSoC5/CAN_1_TX_RX_func.c ****                 result = CAN_1_FAIL;
 271:Generated_Source\PSoC5/CAN_1_TX_RX_func.c ****             }
 272:Generated_Source\PSoC5/CAN_1_TX_RX_func.c ****             else
 273:Generated_Source\PSoC5/CAN_1_TX_RX_func.c ****             {
 274:Generated_Source\PSoC5/CAN_1_TX_RX_func.c ****                 /* `#START MESSAGE_1_TRASMITTED` */
 275:Generated_Source\PSoC5/CAN_1_TX_RX_func.c **** 
 276:Generated_Source\PSoC5/CAN_1_TX_RX_func.c ****                 /* `#END` */
 277:Generated_Source\PSoC5/CAN_1_TX_RX_func.c **** 
 278:Generated_Source\PSoC5/CAN_1_TX_RX_func.c ****                 #ifdef CAN_1_SEND_MSG_1_CALLBACK
 279:Generated_Source\PSoC5/CAN_1_TX_RX_func.c ****                     CAN_1_SendMsg_1_Callback();
 280:Generated_Source\PSoC5/CAN_1_TX_RX_func.c ****                 #endif /* CAN_1_SEND_MSG_1_CALLBACK */
 281:Generated_Source\PSoC5/CAN_1_TX_RX_func.c **** 
 282:Generated_Source\PSoC5/CAN_1_TX_RX_func.c ****                 CY_SET_REG32(CAN_1_TX_CMD_PTR(1u),
 283:Generated_Source\PSoC5/CAN_1_TX_RX_func.c ****                 CY_GET_REG32(CAN_1_TX_CMD_PTR(1u)) | CAN_1_SEND_MESSAGE);
 284:Generated_Source\PSoC5/CAN_1_TX_RX_func.c ****             }
 285:Generated_Source\PSoC5/CAN_1_TX_RX_func.c **** 
 286:Generated_Source\PSoC5/CAN_1_TX_RX_func.c ****         return (result);
 287:Generated_Source\PSoC5/CAN_1_TX_RX_func.c ****     }
 288:Generated_Source\PSoC5/CAN_1_TX_RX_func.c **** #endif /* CAN_1_TX1_FUNC_ENABLE */
 289:Generated_Source\PSoC5/CAN_1_TX_RX_func.c **** 
 290:Generated_Source\PSoC5/CAN_1_TX_RX_func.c **** 
 291:Generated_Source\PSoC5/CAN_1_TX_RX_func.c **** #if (CAN_1_TX2_FUNC_ENABLE)
 292:Generated_Source\PSoC5/CAN_1_TX_RX_func.c ****     /*******************************************************************************
 293:Generated_Source\PSoC5/CAN_1_TX_RX_func.c ****     * FUNCTION NAME:   CAN_1_SendMsg2
 294:Generated_Source\PSoC5/CAN_1_TX_RX_func.c ****     ********************************************************************************
 295:Generated_Source\PSoC5/CAN_1_TX_RX_func.c ****     *
 296:Generated_Source\PSoC5/CAN_1_TX_RX_func.c ****     * Summary:
 297:Generated_Source\PSoC5/CAN_1_TX_RX_func.c ****     *  This function is the entry point to Transmit Message 2. The function checks
 298:Generated_Source\PSoC5/CAN_1_TX_RX_func.c ****     *  if mailbox 2 doesn't already have un-transmitted messages waiting for
 299:Generated_Source\PSoC5/CAN_1_TX_RX_func.c ****     *  arbitration. If not initiate transmission of the message.
 300:Generated_Source\PSoC5/CAN_1_TX_RX_func.c ****     *  Generated only for the Transmit mailbox designed as Full.
 301:Generated_Source\PSoC5/CAN_1_TX_RX_func.c ****     *
 302:Generated_Source\PSoC5/CAN_1_TX_RX_func.c ****     * Parameters:
 303:Generated_Source\PSoC5/CAN_1_TX_RX_func.c ****     *  None.
 304:Generated_Source\PSoC5/CAN_1_TX_RX_func.c ****     *
 305:Generated_Source\PSoC5/CAN_1_TX_RX_func.c ****     * Return:
 306:Generated_Source\PSoC5/CAN_1_TX_RX_func.c ****     *  Indication if Message has been sent.
 307:Generated_Source\PSoC5/CAN_1_TX_RX_func.c ****     *   Define                             Description
 308:Generated_Source\PSoC5/CAN_1_TX_RX_func.c ****     *    CYRET_SUCCESS                      The function passed successfully
 309:Generated_Source\PSoC5/CAN_1_TX_RX_func.c ****     *    CAN_1_FAIL              The function failed
 310:Generated_Source\PSoC5/CAN_1_TX_RX_func.c ****     *
ARM GAS  D:\Windows\AppData\Local\Temp\ccjSkH7A.s 			page 11


 311:Generated_Source\PSoC5/CAN_1_TX_RX_func.c ****     *******************************************************************************/
 312:Generated_Source\PSoC5/CAN_1_TX_RX_func.c ****     uint8 CAN_1_SendMsg2(void) 
 313:Generated_Source\PSoC5/CAN_1_TX_RX_func.c ****     {
 314:Generated_Source\PSoC5/CAN_1_TX_RX_func.c ****         uint8 result = CYRET_SUCCESS;
 315:Generated_Source\PSoC5/CAN_1_TX_RX_func.c **** 
 316:Generated_Source\PSoC5/CAN_1_TX_RX_func.c ****         #if (CY_PSOC3 || CY_PSOC5)
 317:Generated_Source\PSoC5/CAN_1_TX_RX_func.c ****             if ((CAN_1_TX[2u].txcmd.byte[0u] & CAN_1_TX_REQUEST_PENDING) != 0u)
 318:Generated_Source\PSoC5/CAN_1_TX_RX_func.c ****         #else  /* CY_PSOC4 */
 319:Generated_Source\PSoC5/CAN_1_TX_RX_func.c ****             if ((CAN_1_TX_CMD_REG(2u) & CAN_1_TX_REQUEST_PENDING) != 0u)
 320:Generated_Source\PSoC5/CAN_1_TX_RX_func.c ****         #endif /* CY_PSOC3 || CY_PSOC5 */
 321:Generated_Source\PSoC5/CAN_1_TX_RX_func.c ****             {
 322:Generated_Source\PSoC5/CAN_1_TX_RX_func.c ****                 result = CAN_1_FAIL;
 323:Generated_Source\PSoC5/CAN_1_TX_RX_func.c ****             }
 324:Generated_Source\PSoC5/CAN_1_TX_RX_func.c ****             else
 325:Generated_Source\PSoC5/CAN_1_TX_RX_func.c ****             {
 326:Generated_Source\PSoC5/CAN_1_TX_RX_func.c ****                 /* `#START MESSAGE_2_TRASMITTED` */
 327:Generated_Source\PSoC5/CAN_1_TX_RX_func.c **** 
 328:Generated_Source\PSoC5/CAN_1_TX_RX_func.c ****                 /* `#END` */
 329:Generated_Source\PSoC5/CAN_1_TX_RX_func.c **** 
 330:Generated_Source\PSoC5/CAN_1_TX_RX_func.c ****                 #ifdef CAN_1_SEND_MSG_2_CALLBACK
 331:Generated_Source\PSoC5/CAN_1_TX_RX_func.c ****                     CAN_1_SendMsg_2_Callback();
 332:Generated_Source\PSoC5/CAN_1_TX_RX_func.c ****                 #endif /* CAN_1_SEND_MSG_2_CALLBACK */
 333:Generated_Source\PSoC5/CAN_1_TX_RX_func.c **** 
 334:Generated_Source\PSoC5/CAN_1_TX_RX_func.c ****                 CY_SET_REG32(CAN_1_TX_CMD_PTR(2u),
 335:Generated_Source\PSoC5/CAN_1_TX_RX_func.c ****                 CY_GET_REG32(CAN_1_TX_CMD_PTR(2u)) | CAN_1_SEND_MESSAGE);
 336:Generated_Source\PSoC5/CAN_1_TX_RX_func.c ****             }
 337:Generated_Source\PSoC5/CAN_1_TX_RX_func.c **** 
 338:Generated_Source\PSoC5/CAN_1_TX_RX_func.c ****         return (result);
 339:Generated_Source\PSoC5/CAN_1_TX_RX_func.c ****     }
 340:Generated_Source\PSoC5/CAN_1_TX_RX_func.c **** #endif /* CAN_1_TX2_FUNC_ENABLE */
 341:Generated_Source\PSoC5/CAN_1_TX_RX_func.c **** 
 342:Generated_Source\PSoC5/CAN_1_TX_RX_func.c **** 
 343:Generated_Source\PSoC5/CAN_1_TX_RX_func.c **** #if (CAN_1_TX3_FUNC_ENABLE)
 344:Generated_Source\PSoC5/CAN_1_TX_RX_func.c ****     /*******************************************************************************
 345:Generated_Source\PSoC5/CAN_1_TX_RX_func.c ****     * FUNCTION NAME:   CAN_1_SendMsg3
 346:Generated_Source\PSoC5/CAN_1_TX_RX_func.c ****     ********************************************************************************
 347:Generated_Source\PSoC5/CAN_1_TX_RX_func.c ****     *
 348:Generated_Source\PSoC5/CAN_1_TX_RX_func.c ****     * Summary:
 349:Generated_Source\PSoC5/CAN_1_TX_RX_func.c ****     *  This function is the entry point to Transmit Message 3. The function checks
 350:Generated_Source\PSoC5/CAN_1_TX_RX_func.c ****     *  if mailbox 3 doesn't already have un-transmitted messages waiting for
 351:Generated_Source\PSoC5/CAN_1_TX_RX_func.c ****     *  arbitration. If not initiate transmission of the message.
 352:Generated_Source\PSoC5/CAN_1_TX_RX_func.c ****     *  Generated only for the Transmit mailbox designed as Full.
 353:Generated_Source\PSoC5/CAN_1_TX_RX_func.c ****     *
 354:Generated_Source\PSoC5/CAN_1_TX_RX_func.c ****     * Parameters:
 355:Generated_Source\PSoC5/CAN_1_TX_RX_func.c ****     *  None.
 356:Generated_Source\PSoC5/CAN_1_TX_RX_func.c ****     *
 357:Generated_Source\PSoC5/CAN_1_TX_RX_func.c ****     * Return:
 358:Generated_Source\PSoC5/CAN_1_TX_RX_func.c ****     *  Indication if Message has been sent.
 359:Generated_Source\PSoC5/CAN_1_TX_RX_func.c ****     *   Define                             Description
 360:Generated_Source\PSoC5/CAN_1_TX_RX_func.c ****     *    CYRET_SUCCESS                      The function passed successfully
 361:Generated_Source\PSoC5/CAN_1_TX_RX_func.c ****     *    CAN_1_FAIL              The function failed
 362:Generated_Source\PSoC5/CAN_1_TX_RX_func.c ****     *
 363:Generated_Source\PSoC5/CAN_1_TX_RX_func.c ****     *******************************************************************************/
 364:Generated_Source\PSoC5/CAN_1_TX_RX_func.c ****     uint8 CAN_1_SendMsg3(void) 
 365:Generated_Source\PSoC5/CAN_1_TX_RX_func.c ****     {
 366:Generated_Source\PSoC5/CAN_1_TX_RX_func.c ****         uint8 result = CYRET_SUCCESS;
 367:Generated_Source\PSoC5/CAN_1_TX_RX_func.c **** 
ARM GAS  D:\Windows\AppData\Local\Temp\ccjSkH7A.s 			page 12


 368:Generated_Source\PSoC5/CAN_1_TX_RX_func.c ****         #if (CY_PSOC3 || CY_PSOC5)
 369:Generated_Source\PSoC5/CAN_1_TX_RX_func.c ****             if ((CAN_1_TX[3u].txcmd.byte[0u] & CAN_1_TX_REQUEST_PENDING) != 0u)
 370:Generated_Source\PSoC5/CAN_1_TX_RX_func.c ****         #else  /* CY_PSOC4 */
 371:Generated_Source\PSoC5/CAN_1_TX_RX_func.c ****             if ((CAN_1_TX_CMD_REG(3u) & CAN_1_TX_REQUEST_PENDING) != 0u)
 372:Generated_Source\PSoC5/CAN_1_TX_RX_func.c ****         #endif /* CY_PSOC3 || CY_PSOC5 */
 373:Generated_Source\PSoC5/CAN_1_TX_RX_func.c ****             {
 374:Generated_Source\PSoC5/CAN_1_TX_RX_func.c ****                 result = CAN_1_FAIL;
 375:Generated_Source\PSoC5/CAN_1_TX_RX_func.c ****             }
 376:Generated_Source\PSoC5/CAN_1_TX_RX_func.c ****             else
 377:Generated_Source\PSoC5/CAN_1_TX_RX_func.c ****             {
 378:Generated_Source\PSoC5/CAN_1_TX_RX_func.c ****                 /* `#START MESSAGE_3_TRASMITTED` */
 379:Generated_Source\PSoC5/CAN_1_TX_RX_func.c **** 
 380:Generated_Source\PSoC5/CAN_1_TX_RX_func.c ****                 /* `#END` */
 381:Generated_Source\PSoC5/CAN_1_TX_RX_func.c **** 
 382:Generated_Source\PSoC5/CAN_1_TX_RX_func.c ****                 #ifdef CAN_1_SEND_MSG_3_CALLBACK
 383:Generated_Source\PSoC5/CAN_1_TX_RX_func.c ****                     CAN_1_SendMsg_3_Callback();
 384:Generated_Source\PSoC5/CAN_1_TX_RX_func.c ****                 #endif /* CAN_1_SEND_MSG_3_CALLBACK */
 385:Generated_Source\PSoC5/CAN_1_TX_RX_func.c **** 
 386:Generated_Source\PSoC5/CAN_1_TX_RX_func.c ****                 CY_SET_REG32(CAN_1_TX_CMD_PTR(3u),
 387:Generated_Source\PSoC5/CAN_1_TX_RX_func.c ****                 CY_GET_REG32(CAN_1_TX_CMD_PTR(3u)) | CAN_1_SEND_MESSAGE);
 388:Generated_Source\PSoC5/CAN_1_TX_RX_func.c ****             }
 389:Generated_Source\PSoC5/CAN_1_TX_RX_func.c **** 
 390:Generated_Source\PSoC5/CAN_1_TX_RX_func.c ****         return (result);
 391:Generated_Source\PSoC5/CAN_1_TX_RX_func.c ****     }
 392:Generated_Source\PSoC5/CAN_1_TX_RX_func.c **** #endif /* CAN_1_TX3_FUNC_ENABLE */
 393:Generated_Source\PSoC5/CAN_1_TX_RX_func.c **** 
 394:Generated_Source\PSoC5/CAN_1_TX_RX_func.c **** 
 395:Generated_Source\PSoC5/CAN_1_TX_RX_func.c **** #if (CAN_1_TX4_FUNC_ENABLE)
 396:Generated_Source\PSoC5/CAN_1_TX_RX_func.c ****     /*******************************************************************************
 397:Generated_Source\PSoC5/CAN_1_TX_RX_func.c ****     * FUNCTION NAME:   CAN_1_SendMsg4
 398:Generated_Source\PSoC5/CAN_1_TX_RX_func.c ****     ********************************************************************************
 399:Generated_Source\PSoC5/CAN_1_TX_RX_func.c ****     *
 400:Generated_Source\PSoC5/CAN_1_TX_RX_func.c ****     * Summary:
 401:Generated_Source\PSoC5/CAN_1_TX_RX_func.c ****     *  This function is the entry point to Transmit Message 4. The function checks
 402:Generated_Source\PSoC5/CAN_1_TX_RX_func.c ****     *  if mailbox 4 doesn't already have un-transmitted messages waiting for
 403:Generated_Source\PSoC5/CAN_1_TX_RX_func.c ****     *  arbitration. If not initiate transmission of the message.
 404:Generated_Source\PSoC5/CAN_1_TX_RX_func.c ****     *  Generated only for the Transmit mailbox designed as Full.
 405:Generated_Source\PSoC5/CAN_1_TX_RX_func.c ****     *
 406:Generated_Source\PSoC5/CAN_1_TX_RX_func.c ****     * Parameters:
 407:Generated_Source\PSoC5/CAN_1_TX_RX_func.c ****     *  None.
 408:Generated_Source\PSoC5/CAN_1_TX_RX_func.c ****     *
 409:Generated_Source\PSoC5/CAN_1_TX_RX_func.c ****     * Return:
 410:Generated_Source\PSoC5/CAN_1_TX_RX_func.c ****     *  Indication if Message has been sent.
 411:Generated_Source\PSoC5/CAN_1_TX_RX_func.c ****     *   Define                             Description
 412:Generated_Source\PSoC5/CAN_1_TX_RX_func.c ****     *    CYRET_SUCCESS                      The function passed successfully
 413:Generated_Source\PSoC5/CAN_1_TX_RX_func.c ****     *    CAN_1_FAIL              The function failed
 414:Generated_Source\PSoC5/CAN_1_TX_RX_func.c ****     *
 415:Generated_Source\PSoC5/CAN_1_TX_RX_func.c ****     *******************************************************************************/
 416:Generated_Source\PSoC5/CAN_1_TX_RX_func.c ****     uint8 CAN_1_SendMsg4(void) 
 417:Generated_Source\PSoC5/CAN_1_TX_RX_func.c ****     {
 418:Generated_Source\PSoC5/CAN_1_TX_RX_func.c ****         uint8 result = CYRET_SUCCESS;
 419:Generated_Source\PSoC5/CAN_1_TX_RX_func.c **** 
 420:Generated_Source\PSoC5/CAN_1_TX_RX_func.c ****         #if (CY_PSOC3 || CY_PSOC5)
 421:Generated_Source\PSoC5/CAN_1_TX_RX_func.c ****             if ((CAN_1_TX[4u].txcmd.byte[0u] & CAN_1_TX_REQUEST_PENDING) != 0u)
 422:Generated_Source\PSoC5/CAN_1_TX_RX_func.c ****         #else  /* CY_PSOC4 */
 423:Generated_Source\PSoC5/CAN_1_TX_RX_func.c ****             if ((CAN_1_TX_CMD_REG(4u) & CAN_1_TX_REQUEST_PENDING) != 0u)
 424:Generated_Source\PSoC5/CAN_1_TX_RX_func.c ****         #endif /* CY_PSOC3 || CY_PSOC5 */
ARM GAS  D:\Windows\AppData\Local\Temp\ccjSkH7A.s 			page 13


 425:Generated_Source\PSoC5/CAN_1_TX_RX_func.c ****             {
 426:Generated_Source\PSoC5/CAN_1_TX_RX_func.c ****                 result = CAN_1_FAIL;
 427:Generated_Source\PSoC5/CAN_1_TX_RX_func.c ****             }
 428:Generated_Source\PSoC5/CAN_1_TX_RX_func.c ****             else
 429:Generated_Source\PSoC5/CAN_1_TX_RX_func.c ****             {
 430:Generated_Source\PSoC5/CAN_1_TX_RX_func.c ****                 /* `#START MESSAGE_4_TRASMITTED` */
 431:Generated_Source\PSoC5/CAN_1_TX_RX_func.c **** 
 432:Generated_Source\PSoC5/CAN_1_TX_RX_func.c ****                 /* `#END` */
 433:Generated_Source\PSoC5/CAN_1_TX_RX_func.c **** 
 434:Generated_Source\PSoC5/CAN_1_TX_RX_func.c ****                 #ifdef CAN_1_SEND_MSG_4_CALLBACK
 435:Generated_Source\PSoC5/CAN_1_TX_RX_func.c ****                     CAN_1_SendMsg_4_Callback();
 436:Generated_Source\PSoC5/CAN_1_TX_RX_func.c ****                 #endif /* CAN_1_SEND_MSG_4_CALLBACK */
 437:Generated_Source\PSoC5/CAN_1_TX_RX_func.c **** 
 438:Generated_Source\PSoC5/CAN_1_TX_RX_func.c ****                 CY_SET_REG32(CAN_1_TX_CMD_PTR(4u),
 439:Generated_Source\PSoC5/CAN_1_TX_RX_func.c ****                 CY_GET_REG32(CAN_1_TX_CMD_PTR(4u)) | CAN_1_SEND_MESSAGE);
 440:Generated_Source\PSoC5/CAN_1_TX_RX_func.c ****             }
 441:Generated_Source\PSoC5/CAN_1_TX_RX_func.c **** 
 442:Generated_Source\PSoC5/CAN_1_TX_RX_func.c ****         return (result);
 443:Generated_Source\PSoC5/CAN_1_TX_RX_func.c ****     }
 444:Generated_Source\PSoC5/CAN_1_TX_RX_func.c **** #endif /* CAN_1_TX4_FUNC_ENABLE */
 445:Generated_Source\PSoC5/CAN_1_TX_RX_func.c **** 
 446:Generated_Source\PSoC5/CAN_1_TX_RX_func.c **** 
 447:Generated_Source\PSoC5/CAN_1_TX_RX_func.c **** #if (CAN_1_TX5_FUNC_ENABLE)
 448:Generated_Source\PSoC5/CAN_1_TX_RX_func.c ****     /*******************************************************************************
 449:Generated_Source\PSoC5/CAN_1_TX_RX_func.c ****     * FUNCTION NAME:   CAN_1_SendMsg5
 450:Generated_Source\PSoC5/CAN_1_TX_RX_func.c ****     ********************************************************************************
 451:Generated_Source\PSoC5/CAN_1_TX_RX_func.c ****     *
 452:Generated_Source\PSoC5/CAN_1_TX_RX_func.c ****     * Summary:
 453:Generated_Source\PSoC5/CAN_1_TX_RX_func.c ****     *  This function is the entry point to Transmit Message 5. The function checks
 454:Generated_Source\PSoC5/CAN_1_TX_RX_func.c ****     *  if mailbox 5 doesn't already have un-transmitted messages waiting for
 455:Generated_Source\PSoC5/CAN_1_TX_RX_func.c ****     *  arbitration. If not initiate transmission of the message.
 456:Generated_Source\PSoC5/CAN_1_TX_RX_func.c ****     *  Generated only for the Transmit mailbox designed as Full.
 457:Generated_Source\PSoC5/CAN_1_TX_RX_func.c ****     *
 458:Generated_Source\PSoC5/CAN_1_TX_RX_func.c ****     * Parameters:
 459:Generated_Source\PSoC5/CAN_1_TX_RX_func.c ****     *  None.
 460:Generated_Source\PSoC5/CAN_1_TX_RX_func.c ****     *
 461:Generated_Source\PSoC5/CAN_1_TX_RX_func.c ****     * Return:
 462:Generated_Source\PSoC5/CAN_1_TX_RX_func.c ****     *  Indication if Message has been sent.
 463:Generated_Source\PSoC5/CAN_1_TX_RX_func.c ****     *   Define                             Description
 464:Generated_Source\PSoC5/CAN_1_TX_RX_func.c ****     *    CYRET_SUCCESS                      The function passed successfully
 465:Generated_Source\PSoC5/CAN_1_TX_RX_func.c ****     *    CAN_1_FAIL              The function failed
 466:Generated_Source\PSoC5/CAN_1_TX_RX_func.c ****     *
 467:Generated_Source\PSoC5/CAN_1_TX_RX_func.c ****     *******************************************************************************/
 468:Generated_Source\PSoC5/CAN_1_TX_RX_func.c ****     uint8 CAN_1_SendMsg5(void) 
 469:Generated_Source\PSoC5/CAN_1_TX_RX_func.c ****     {
 470:Generated_Source\PSoC5/CAN_1_TX_RX_func.c ****         uint8 result = CYRET_SUCCESS;
 471:Generated_Source\PSoC5/CAN_1_TX_RX_func.c **** 
 472:Generated_Source\PSoC5/CAN_1_TX_RX_func.c ****         #if (CY_PSOC3 || CY_PSOC5)
 473:Generated_Source\PSoC5/CAN_1_TX_RX_func.c ****             if ((CAN_1_TX[5u].txcmd.byte[0u] & CAN_1_TX_REQUEST_PENDING) != 0u)
 474:Generated_Source\PSoC5/CAN_1_TX_RX_func.c ****         #else  /* CY_PSOC4 */
 475:Generated_Source\PSoC5/CAN_1_TX_RX_func.c ****             if ((CAN_1_TX_CMD_REG(5u) & CAN_1_TX_REQUEST_PENDING) != 0u)
 476:Generated_Source\PSoC5/CAN_1_TX_RX_func.c ****         #endif /* CY_PSOC3 || CY_PSOC5 */
 477:Generated_Source\PSoC5/CAN_1_TX_RX_func.c ****             {
 478:Generated_Source\PSoC5/CAN_1_TX_RX_func.c ****                 result = CAN_1_FAIL;
 479:Generated_Source\PSoC5/CAN_1_TX_RX_func.c ****             }
 480:Generated_Source\PSoC5/CAN_1_TX_RX_func.c ****             else
 481:Generated_Source\PSoC5/CAN_1_TX_RX_func.c ****             {
ARM GAS  D:\Windows\AppData\Local\Temp\ccjSkH7A.s 			page 14


 482:Generated_Source\PSoC5/CAN_1_TX_RX_func.c ****                 /* `#START MESSAGE_5_TRASMITTED` */
 483:Generated_Source\PSoC5/CAN_1_TX_RX_func.c **** 
 484:Generated_Source\PSoC5/CAN_1_TX_RX_func.c ****                 /* `#END` */
 485:Generated_Source\PSoC5/CAN_1_TX_RX_func.c **** 
 486:Generated_Source\PSoC5/CAN_1_TX_RX_func.c ****                 #ifdef CAN_1_SEND_MSG_5_CALLBACK
 487:Generated_Source\PSoC5/CAN_1_TX_RX_func.c ****                     CAN_1_SendMsg_5_Callback();
 488:Generated_Source\PSoC5/CAN_1_TX_RX_func.c ****                 #endif /* CAN_1_SEND_MSG_5_CALLBACK */
 489:Generated_Source\PSoC5/CAN_1_TX_RX_func.c **** 
 490:Generated_Source\PSoC5/CAN_1_TX_RX_func.c ****                 CY_SET_REG32(CAN_1_TX_CMD_PTR(5u),
 491:Generated_Source\PSoC5/CAN_1_TX_RX_func.c ****                 CY_GET_REG32(CAN_1_TX_CMD_PTR(5u)) | CAN_1_SEND_MESSAGE);
 492:Generated_Source\PSoC5/CAN_1_TX_RX_func.c ****             }
 493:Generated_Source\PSoC5/CAN_1_TX_RX_func.c **** 
 494:Generated_Source\PSoC5/CAN_1_TX_RX_func.c ****         return (result);
 495:Generated_Source\PSoC5/CAN_1_TX_RX_func.c ****     }
 496:Generated_Source\PSoC5/CAN_1_TX_RX_func.c **** #endif /* CAN_1_TX5_FUNC_ENABLE */
 497:Generated_Source\PSoC5/CAN_1_TX_RX_func.c **** 
 498:Generated_Source\PSoC5/CAN_1_TX_RX_func.c **** 
 499:Generated_Source\PSoC5/CAN_1_TX_RX_func.c **** #if (CAN_1_TX6_FUNC_ENABLE)
 500:Generated_Source\PSoC5/CAN_1_TX_RX_func.c ****     /*******************************************************************************
 501:Generated_Source\PSoC5/CAN_1_TX_RX_func.c ****     * FUNCTION NAME:   CAN_1_SendMsg6
 502:Generated_Source\PSoC5/CAN_1_TX_RX_func.c ****     ********************************************************************************
 503:Generated_Source\PSoC5/CAN_1_TX_RX_func.c ****     *
 504:Generated_Source\PSoC5/CAN_1_TX_RX_func.c ****     * Summary:
 505:Generated_Source\PSoC5/CAN_1_TX_RX_func.c ****     *  This function is the entry point to Transmit Message 6. The function checks
 506:Generated_Source\PSoC5/CAN_1_TX_RX_func.c ****     *  if mailbox 6 doesn't already have un-transmitted messages waiting for
 507:Generated_Source\PSoC5/CAN_1_TX_RX_func.c ****     *  arbitration. If not initiate transmission of the message.
 508:Generated_Source\PSoC5/CAN_1_TX_RX_func.c ****     *  Generated only for the Transmit mailbox designed as Full.
 509:Generated_Source\PSoC5/CAN_1_TX_RX_func.c ****     *
 510:Generated_Source\PSoC5/CAN_1_TX_RX_func.c ****     * Parameters:
 511:Generated_Source\PSoC5/CAN_1_TX_RX_func.c ****     *  None.
 512:Generated_Source\PSoC5/CAN_1_TX_RX_func.c ****     *
 513:Generated_Source\PSoC5/CAN_1_TX_RX_func.c ****     * Return:
 514:Generated_Source\PSoC5/CAN_1_TX_RX_func.c ****     *  Indication if Message has been sent.
 515:Generated_Source\PSoC5/CAN_1_TX_RX_func.c ****     *   Define                             Description
 516:Generated_Source\PSoC5/CAN_1_TX_RX_func.c ****     *    CYRET_SUCCESS                      The function passed successfully
 517:Generated_Source\PSoC5/CAN_1_TX_RX_func.c ****     *    CAN_1_FAIL              The function failed
 518:Generated_Source\PSoC5/CAN_1_TX_RX_func.c ****     *
 519:Generated_Source\PSoC5/CAN_1_TX_RX_func.c ****     *******************************************************************************/
 520:Generated_Source\PSoC5/CAN_1_TX_RX_func.c ****     uint8 CAN_1_SendMsg6(void) 
 521:Generated_Source\PSoC5/CAN_1_TX_RX_func.c ****     {
 522:Generated_Source\PSoC5/CAN_1_TX_RX_func.c ****         uint8 result = CYRET_SUCCESS;
 523:Generated_Source\PSoC5/CAN_1_TX_RX_func.c **** 
 524:Generated_Source\PSoC5/CAN_1_TX_RX_func.c ****         #if (CY_PSOC3 || CY_PSOC5)
 525:Generated_Source\PSoC5/CAN_1_TX_RX_func.c ****             if ((CAN_1_TX[6u].txcmd.byte[0u] & CAN_1_TX_REQUEST_PENDING) != 0u)
 526:Generated_Source\PSoC5/CAN_1_TX_RX_func.c ****         #else  /* CY_PSOC4 */
 527:Generated_Source\PSoC5/CAN_1_TX_RX_func.c ****             if ((CAN_1_TX_CMD_REG(6u) & CAN_1_TX_REQUEST_PENDING) != 0u)
 528:Generated_Source\PSoC5/CAN_1_TX_RX_func.c ****         #endif /* CY_PSOC3 || CY_PSOC5 */
 529:Generated_Source\PSoC5/CAN_1_TX_RX_func.c ****             {
 530:Generated_Source\PSoC5/CAN_1_TX_RX_func.c ****                 result = CAN_1_FAIL;
 531:Generated_Source\PSoC5/CAN_1_TX_RX_func.c ****             }
 532:Generated_Source\PSoC5/CAN_1_TX_RX_func.c ****             else
 533:Generated_Source\PSoC5/CAN_1_TX_RX_func.c ****             {
 534:Generated_Source\PSoC5/CAN_1_TX_RX_func.c ****                 /* `#START MESSAGE_6_TRASMITTED` */
 535:Generated_Source\PSoC5/CAN_1_TX_RX_func.c **** 
 536:Generated_Source\PSoC5/CAN_1_TX_RX_func.c ****                 /* `#END` */
 537:Generated_Source\PSoC5/CAN_1_TX_RX_func.c **** 
 538:Generated_Source\PSoC5/CAN_1_TX_RX_func.c ****                 #ifdef CAN_1_SEND_MSG_6_CALLBACK
ARM GAS  D:\Windows\AppData\Local\Temp\ccjSkH7A.s 			page 15


 539:Generated_Source\PSoC5/CAN_1_TX_RX_func.c ****                     CAN_1_SendMsg_6_Callback();
 540:Generated_Source\PSoC5/CAN_1_TX_RX_func.c ****                 #endif /* CAN_1_SEND_MSG_6_CALLBACK */
 541:Generated_Source\PSoC5/CAN_1_TX_RX_func.c **** 
 542:Generated_Source\PSoC5/CAN_1_TX_RX_func.c ****                 CY_SET_REG32(CAN_1_TX_CMD_PTR(6u),
 543:Generated_Source\PSoC5/CAN_1_TX_RX_func.c ****                 CY_GET_REG32(CAN_1_TX_CMD_PTR(6u)) | CAN_1_SEND_MESSAGE);
 544:Generated_Source\PSoC5/CAN_1_TX_RX_func.c ****             }
 545:Generated_Source\PSoC5/CAN_1_TX_RX_func.c **** 
 546:Generated_Source\PSoC5/CAN_1_TX_RX_func.c ****         return (result);
 547:Generated_Source\PSoC5/CAN_1_TX_RX_func.c ****     }
 548:Generated_Source\PSoC5/CAN_1_TX_RX_func.c **** #endif /* CAN_1_TX6_FUNC_ENABLE */
 549:Generated_Source\PSoC5/CAN_1_TX_RX_func.c **** 
 550:Generated_Source\PSoC5/CAN_1_TX_RX_func.c **** 
 551:Generated_Source\PSoC5/CAN_1_TX_RX_func.c **** #if (CAN_1_TX7_FUNC_ENABLE)
 552:Generated_Source\PSoC5/CAN_1_TX_RX_func.c ****     /*******************************************************************************
 553:Generated_Source\PSoC5/CAN_1_TX_RX_func.c ****     * FUNCTION NAME:   CAN_1_SendMsg7)
 554:Generated_Source\PSoC5/CAN_1_TX_RX_func.c ****     ********************************************************************************
 555:Generated_Source\PSoC5/CAN_1_TX_RX_func.c ****     *
 556:Generated_Source\PSoC5/CAN_1_TX_RX_func.c ****     * Summary:
 557:Generated_Source\PSoC5/CAN_1_TX_RX_func.c ****     *  This function is the entry point to Transmit Message 7. The function checks
 558:Generated_Source\PSoC5/CAN_1_TX_RX_func.c ****     *  if mailbox 7 doesn't already have un-transmitted messages waiting for
 559:Generated_Source\PSoC5/CAN_1_TX_RX_func.c ****     *  arbitration. If not initiate transmission of the message.
 560:Generated_Source\PSoC5/CAN_1_TX_RX_func.c ****     *  Generated only for the Transmit mailbox designed as Full.
 561:Generated_Source\PSoC5/CAN_1_TX_RX_func.c ****     *
 562:Generated_Source\PSoC5/CAN_1_TX_RX_func.c ****     * Parameters:
 563:Generated_Source\PSoC5/CAN_1_TX_RX_func.c ****     *  None.
 564:Generated_Source\PSoC5/CAN_1_TX_RX_func.c ****     *
 565:Generated_Source\PSoC5/CAN_1_TX_RX_func.c ****     * Return:
 566:Generated_Source\PSoC5/CAN_1_TX_RX_func.c ****     *  Indication if Message has been sent.
 567:Generated_Source\PSoC5/CAN_1_TX_RX_func.c ****     *   Define                             Description
 568:Generated_Source\PSoC5/CAN_1_TX_RX_func.c ****     *    CYRET_SUCCESS                      The function passed successfully
 569:Generated_Source\PSoC5/CAN_1_TX_RX_func.c ****     *    CAN_1_FAIL              The function failed
 570:Generated_Source\PSoC5/CAN_1_TX_RX_func.c ****     *
 571:Generated_Source\PSoC5/CAN_1_TX_RX_func.c ****     *******************************************************************************/
 572:Generated_Source\PSoC5/CAN_1_TX_RX_func.c ****     uint8 CAN_1_SendMsg7(void) 
 573:Generated_Source\PSoC5/CAN_1_TX_RX_func.c ****     {
 574:Generated_Source\PSoC5/CAN_1_TX_RX_func.c ****         uint8 result = CYRET_SUCCESS;
 575:Generated_Source\PSoC5/CAN_1_TX_RX_func.c **** 
 576:Generated_Source\PSoC5/CAN_1_TX_RX_func.c ****         #if (CY_PSOC3 || CY_PSOC5)
 577:Generated_Source\PSoC5/CAN_1_TX_RX_func.c ****             if ((CAN_1_TX[7u].txcmd.byte[0u] & CAN_1_TX_REQUEST_PENDING) != 0u)
 578:Generated_Source\PSoC5/CAN_1_TX_RX_func.c ****         #else  /* CY_PSOC4 */
 579:Generated_Source\PSoC5/CAN_1_TX_RX_func.c ****             if ((CAN_1_TX_CMD_REG(7u) & CAN_1_TX_REQUEST_PENDING) != 0u)
 580:Generated_Source\PSoC5/CAN_1_TX_RX_func.c ****         #endif /* CY_PSOC3 || CY_PSOC5 */
 581:Generated_Source\PSoC5/CAN_1_TX_RX_func.c ****             {
 582:Generated_Source\PSoC5/CAN_1_TX_RX_func.c ****                 result = CAN_1_FAIL;
 583:Generated_Source\PSoC5/CAN_1_TX_RX_func.c ****             }
 584:Generated_Source\PSoC5/CAN_1_TX_RX_func.c ****             else
 585:Generated_Source\PSoC5/CAN_1_TX_RX_func.c ****             {
 586:Generated_Source\PSoC5/CAN_1_TX_RX_func.c ****                 /* `#START MESSAGE_7_TRASMITTED` */
 587:Generated_Source\PSoC5/CAN_1_TX_RX_func.c **** 
 588:Generated_Source\PSoC5/CAN_1_TX_RX_func.c ****                 /* `#END` */
 589:Generated_Source\PSoC5/CAN_1_TX_RX_func.c **** 
 590:Generated_Source\PSoC5/CAN_1_TX_RX_func.c ****                 #ifdef CAN_1_SEND_MSG_7_CALLBACK
 591:Generated_Source\PSoC5/CAN_1_TX_RX_func.c ****                     CAN_1_SendMsg_7_Callback();
 592:Generated_Source\PSoC5/CAN_1_TX_RX_func.c ****                 #endif /* CAN_1_SEND_MSG_7_CALLBACK */
 593:Generated_Source\PSoC5/CAN_1_TX_RX_func.c **** 
 594:Generated_Source\PSoC5/CAN_1_TX_RX_func.c ****                 CY_SET_REG32(CAN_1_TX_CMD_PTR(7u),
 595:Generated_Source\PSoC5/CAN_1_TX_RX_func.c ****                 CY_GET_REG32(CAN_1_TX_CMD_PTR(7u)) | CAN_1_SEND_MESSAGE);
ARM GAS  D:\Windows\AppData\Local\Temp\ccjSkH7A.s 			page 16


 596:Generated_Source\PSoC5/CAN_1_TX_RX_func.c ****             }
 597:Generated_Source\PSoC5/CAN_1_TX_RX_func.c **** 
 598:Generated_Source\PSoC5/CAN_1_TX_RX_func.c ****         return (result);
 599:Generated_Source\PSoC5/CAN_1_TX_RX_func.c ****     }
 600:Generated_Source\PSoC5/CAN_1_TX_RX_func.c **** #endif /* CAN_1_TX7_FUNC_ENABLE */
 601:Generated_Source\PSoC5/CAN_1_TX_RX_func.c **** 
 602:Generated_Source\PSoC5/CAN_1_TX_RX_func.c **** 
 603:Generated_Source\PSoC5/CAN_1_TX_RX_func.c **** /*******************************************************************************
 604:Generated_Source\PSoC5/CAN_1_TX_RX_func.c **** * FUNCTION NAME:   CAN_1_ReceiveMsg
 605:Generated_Source\PSoC5/CAN_1_TX_RX_func.c **** ********************************************************************************
 606:Generated_Source\PSoC5/CAN_1_TX_RX_func.c **** *
 607:Generated_Source\PSoC5/CAN_1_TX_RX_func.c **** * Summary:
 608:Generated_Source\PSoC5/CAN_1_TX_RX_func.c **** *  This function is the entry point to Receive Message Interrupt for Basic
 609:Generated_Source\PSoC5/CAN_1_TX_RX_func.c **** *  mailboxes. Clears the Receive particular Message interrupt flag. Generated
 610:Generated_Source\PSoC5/CAN_1_TX_RX_func.c **** *  only if one of the Receive mailboxes is designed as Basic.
 611:Generated_Source\PSoC5/CAN_1_TX_RX_func.c **** *
 612:Generated_Source\PSoC5/CAN_1_TX_RX_func.c **** * Parameters:
 613:Generated_Source\PSoC5/CAN_1_TX_RX_func.c **** *  rxMailbox: The mailbox number that trig Receive Message Interrupt.
 614:Generated_Source\PSoC5/CAN_1_TX_RX_func.c **** *
 615:Generated_Source\PSoC5/CAN_1_TX_RX_func.c **** * Return:
 616:Generated_Source\PSoC5/CAN_1_TX_RX_func.c **** *  None.
 617:Generated_Source\PSoC5/CAN_1_TX_RX_func.c **** *
 618:Generated_Source\PSoC5/CAN_1_TX_RX_func.c **** * Reentrant:
 619:Generated_Source\PSoC5/CAN_1_TX_RX_func.c **** *  Depends on the Customer code.
 620:Generated_Source\PSoC5/CAN_1_TX_RX_func.c **** *
 621:Generated_Source\PSoC5/CAN_1_TX_RX_func.c **** *******************************************************************************/
 622:Generated_Source\PSoC5/CAN_1_TX_RX_func.c **** void CAN_1_ReceiveMsg(uint8 rxMailbox) 
 623:Generated_Source\PSoC5/CAN_1_TX_RX_func.c **** {
 254              		.loc 1 623 0
 255              		.cfi_startproc
 256              		@ args = 0, pretend = 0, frame = 0
 257              		@ frame_needed = 0, uses_anonymous_args = 0
 258              		@ link register save eliminated.
 259              	.LVL29:
 624:Generated_Source\PSoC5/CAN_1_TX_RX_func.c ****     #if (CY_PSOC3 || CY_PSOC5)
 625:Generated_Source\PSoC5/CAN_1_TX_RX_func.c ****         if ((CAN_1_RX[rxMailbox].rxcmd.byte[0u] & CAN_1_RX_ACK_MSG) != 0u)
 260              		.loc 1 625 0
 261 0000 4001     		lsls	r0, r0, #5
 262              	.LVL30:
 263 0002 054B     		ldr	r3, .L30
 264 0004 C25C     		ldrb	r2, [r0, r3]	@ zero_extendqisi2
 265 0006 12F0010F 		tst	r2, #1
 266 000a 03D0     		beq	.L28
 626:Generated_Source\PSoC5/CAN_1_TX_RX_func.c ****     #else  /* CY_PSOC4 */
 627:Generated_Source\PSoC5/CAN_1_TX_RX_func.c ****         if ((CAN_1_RX_CMD_REG(rxMailbox) & CAN_1_RX_ACK_MSG) != 0u)
 628:Generated_Source\PSoC5/CAN_1_TX_RX_func.c ****     #endif /* CY_PSOC3 || CY_PSOC5 */
 629:Generated_Source\PSoC5/CAN_1_TX_RX_func.c ****         {
 630:Generated_Source\PSoC5/CAN_1_TX_RX_func.c ****             /* `#START MESSAGE_BASIC_RECEIVED` */
 631:Generated_Source\PSoC5/CAN_1_TX_RX_func.c **** 
 632:Generated_Source\PSoC5/CAN_1_TX_RX_func.c ****             /* `#END` */
 633:Generated_Source\PSoC5/CAN_1_TX_RX_func.c **** 
 634:Generated_Source\PSoC5/CAN_1_TX_RX_func.c ****             #ifdef CAN_1_RECEIVE_MSG_CALLBACK
 635:Generated_Source\PSoC5/CAN_1_TX_RX_func.c ****                 CAN_1_ReceiveMsg_Callback();
 636:Generated_Source\PSoC5/CAN_1_TX_RX_func.c ****             #endif /* CAN_1_RECEIVE_MSG_CALLBACK */
 637:Generated_Source\PSoC5/CAN_1_TX_RX_func.c **** 
 638:Generated_Source\PSoC5/CAN_1_TX_RX_func.c ****             #if (CY_PSOC3 || CY_PSOC5)
 639:Generated_Source\PSoC5/CAN_1_TX_RX_func.c ****                 CAN_1_RX[rxMailbox].rxcmd.byte[0u] |= CAN_1_RX_ACK_MSG;
ARM GAS  D:\Windows\AppData\Local\Temp\ccjSkH7A.s 			page 17


 267              		.loc 1 639 0
 268 000c C25C     		ldrb	r2, [r0, r3]	@ zero_extendqisi2
 269 000e 42F00102 		orr	r2, r2, #1
 270 0012 C254     		strb	r2, [r0, r3]
 271              	.L28:
 272 0014 7047     		bx	lr
 273              	.L31:
 274 0016 00BF     		.align	2
 275              	.L30:
 276 0018 A0A00040 		.word	1073782944
 277              		.cfi_endproc
 278              	.LFE2:
 279              		.size	CAN_1_ReceiveMsg, .-CAN_1_ReceiveMsg
 280              		.text
 281              	.Letext0:
 282              		.file 2 "Generated_Source\\PSoC5\\cytypes.h"
 283              		.file 3 "Generated_Source\\PSoC5\\CAN_1.h"