ARM GAS  D:\Windows\AppData\Local\Temp\ccWMFQPN.s 			page 1


   1              		.syntax unified
   2              		.cpu cortex-m3
   3              		.fpu softvfp
   4              		.eabi_attribute 20, 1
   5              		.eabi_attribute 21, 1
   6              		.eabi_attribute 23, 3
   7              		.eabi_attribute 24, 1
   8              		.eabi_attribute 25, 1
   9              		.eabi_attribute 26, 1
  10              		.eabi_attribute 30, 1
  11              		.eabi_attribute 34, 1
  12              		.eabi_attribute 18, 4
  13              		.thumb
  14              		.file	"can_manager.c"
  15              		.text
  16              	.Ltext0:
  17              		.cfi_sections	.debug_frame
  18              		.section	.text.can_msg_init,"ax",%progbits
  19              		.align	2
  20              		.global	can_msg_init
  21              		.thumb
  22              		.thumb_func
  23              		.type	can_msg_init, %function
  24              	can_msg_init:
  25              	.LFB64:
  26              		.file 1 "can_manager.c"
   1:can_manager.c **** #include "can_manager.h"
   2:can_manager.c **** #include <stdio.h>
   3:can_manager.c **** 
   4:can_manager.c **** #define BMS_CURRENT_ID		0x288
   5:can_manager.c **** #define BMS_VOLTAGE_ID		0x388
   6:can_manager.c **** #define BMS_TEMP_ID			0x488
   7:can_manager.c **** 
   8:can_manager.c **** DataPacket BMS_STATUS;		//0x188
   9:can_manager.c **** DataPacket BMS_CURRENT;		//0x288
  10:can_manager.c **** DataPacket BMS_VOLTAGE;		//0x388
  11:can_manager.c **** DataPacket BMS_TEMP;		//0x488
  12:can_manager.c **** 
  13:can_manager.c **** void can_init() {
  14:can_manager.c **** 	CAN_GlobalIntEnable(); // CAN Initialization
  15:can_manager.c **** 	CAN_Init();
  16:can_manager.c **** 	CAN_Start();
  17:can_manager.c **** 	
  18:can_manager.c **** 	
  19:can_manager.c **** 	can_msg_init(&BMS_CURRENT, BMS_CURRENT_ID); 
  20:can_manager.c **** 	can_msg_init(&BMS_VOLTAGE, BMS_VOLTAGE_ID);
  21:can_manager.c **** 	can_msg_init(&BMS_TEMP, BMS_TEMP_ID);
  22:can_manager.c **** }
  23:can_manager.c **** 
  24:can_manager.c **** //initalize CAN message variables with FF's everywhere
  25:can_manager.c **** void can_msg_init(DataPacket* can_msg, uint16_t id) {
  27              		.loc 1 25 0
  28              		.cfi_startproc
  29              		@ args = 0, pretend = 0, frame = 0
  30              		@ frame_needed = 0, uses_anonymous_args = 0
  31              		@ link register save eliminated.
  32              	.LVL0:
ARM GAS  D:\Windows\AppData\Local\Temp\ccWMFQPN.s 			page 2


  26:can_manager.c **** 	uint8_t i;
  27:can_manager.c **** 	can_msg->id = id;
  33              		.loc 1 27 0
  34 0000 8180     		strh	r1, [r0, #4]	@ movhi
  28:can_manager.c **** 	can_msg->length = 8;
  35              		.loc 1 28 0
  36 0002 0823     		movs	r3, #8
  37 0004 8371     		strb	r3, [r0, #6]
  29:can_manager.c **** 	can_msg->millicounter = 0;
  38              		.loc 1 29 0
  39 0006 0023     		movs	r3, #0
  40 0008 0360     		str	r3, [r0]
  41              	.LVL1:
  30:can_manager.c **** 	for(i=0; i<can_msg->length; i++) {
  42              		.loc 1 30 0
  43 000a 04E0     		b	.L2
  44              	.LVL2:
  45              	.L3:
  31:can_manager.c **** 		can_msg->data[i] = 0xFF;
  46              		.loc 1 31 0 discriminator 3
  47 000c C218     		adds	r2, r0, r3
  48 000e FF21     		movs	r1, #255
  49 0010 D171     		strb	r1, [r2, #7]
  30:can_manager.c **** 	for(i=0; i<can_msg->length; i++) {
  50              		.loc 1 30 0 discriminator 3
  51 0012 0133     		adds	r3, r3, #1
  52              	.LVL3:
  53 0014 DBB2     		uxtb	r3, r3
  54              	.LVL4:
  55              	.L2:
  30:can_manager.c **** 	for(i=0; i<can_msg->length; i++) {
  56              		.loc 1 30 0 is_stmt 0 discriminator 1
  57 0016 072B     		cmp	r3, #7
  58 0018 F8D9     		bls	.L3
  32:can_manager.c **** 	}
  33:can_manager.c **** 	
  34:can_manager.c **** } //can_msg_init()
  59              		.loc 1 34 0 is_stmt 1
  60 001a 7047     		bx	lr
  61              		.cfi_endproc
  62              	.LFE64:
  63              		.size	can_msg_init, .-can_msg_init
  64              		.section	.text.can_init,"ax",%progbits
  65              		.align	2
  66              		.global	can_init
  67              		.thumb
  68              		.thumb_func
  69              		.type	can_init, %function
  70              	can_init:
  71              	.LFB63:
  13:can_manager.c **** 	CAN_GlobalIntEnable(); // CAN Initialization
  72              		.loc 1 13 0
  73              		.cfi_startproc
  74              		@ args = 0, pretend = 0, frame = 0
  75              		@ frame_needed = 0, uses_anonymous_args = 0
  76 0000 08B5     		push	{r3, lr}
  77              		.cfi_def_cfa_offset 8
ARM GAS  D:\Windows\AppData\Local\Temp\ccWMFQPN.s 			page 3


  78              		.cfi_offset 3, -8
  79              		.cfi_offset 14, -4
  14:can_manager.c **** 	CAN_Init();
  80              		.loc 1 14 0
  81 0002 FFF7FEFF 		bl	CAN_GlobalIntEnable
  82              	.LVL5:
  15:can_manager.c **** 	CAN_Start();
  83              		.loc 1 15 0
  84 0006 FFF7FEFF 		bl	CAN_Init
  85              	.LVL6:
  16:can_manager.c **** 	
  86              		.loc 1 16 0
  87 000a FFF7FEFF 		bl	CAN_Start
  88              	.LVL7:
  19:can_manager.c **** 	can_msg_init(&BMS_VOLTAGE, BMS_VOLTAGE_ID);
  89              		.loc 1 19 0
  90 000e 0848     		ldr	r0, .L6
  91 0010 4FF42271 		mov	r1, #648
  92 0014 FFF7FEFF 		bl	can_msg_init
  93              	.LVL8:
  20:can_manager.c **** 	can_msg_init(&BMS_TEMP, BMS_TEMP_ID);
  94              		.loc 1 20 0
  95 0018 0648     		ldr	r0, .L6+4
  96 001a 4FF46271 		mov	r1, #904
  97 001e FFF7FEFF 		bl	can_msg_init
  98              	.LVL9:
  21:can_manager.c **** }
  99              		.loc 1 21 0
 100 0022 0548     		ldr	r0, .L6+8
 101 0024 4FF49161 		mov	r1, #1160
 102 0028 FFF7FEFF 		bl	can_msg_init
 103              	.LVL10:
 104 002c 08BD     		pop	{r3, pc}
 105              	.L7:
 106 002e 00BF     		.align	2
 107              	.L6:
 108 0030 00000000 		.word	BMS_CURRENT
 109 0034 00000000 		.word	BMS_VOLTAGE
 110 0038 00000000 		.word	BMS_TEMP
 111              		.cfi_endproc
 112              	.LFE63:
 113              		.size	can_init, .-can_init
 114              		.section	.text.can_compare,"ax",%progbits
 115              		.align	2
 116              		.global	can_compare
 117              		.thumb
 118              		.thumb_func
 119              		.type	can_compare, %function
 120              	can_compare:
 121              	.LFB66:
  35:can_manager.c **** 
  36:can_manager.c **** 
  37:can_manager.c **** /*  recieves can message from bus can compares it with is respective id*/
  38:can_manager.c **** int can_process(DataPacket* can_msg){
  39:can_manager.c **** 	int status = 0;		//returns 1 if message is updated
  40:can_manager.c ****     switch (can_msg->id) {
  41:can_manager.c **** 	case BMS_CURRENT_ID:		//0x288
ARM GAS  D:\Windows\AppData\Local\Temp\ccWMFQPN.s 			page 4


  42:can_manager.c **** 		status = can_compare(&BMS_STATUS, can_msg);
  43:can_manager.c **** 		if(status)
  44:can_manager.c **** 			can_process_BMS_CURR();
  45:can_manager.c **** 		break;
  46:can_manager.c **** 	case BMS_VOLTAGE_ID:	//0x388
  47:can_manager.c **** 		status = can_compare(&BMS_VOLTAGE, can_msg);
  48:can_manager.c **** 		if(status)
  49:can_manager.c **** 			can_process_BMS_VOLT();
  50:can_manager.c **** 		break;
  51:can_manager.c **** 	case BMS_TEMP_ID:		//0x488
  52:can_manager.c **** 		status = can_compare(&BMS_TEMP, can_msg);
  53:can_manager.c **** 		if(status)
  54:can_manager.c **** 			can_process_BMS_TEMP();
  55:can_manager.c **** 		break;
  56:can_manager.c ****     default:
  57:can_manager.c **** 		status = 0;
  58:can_manager.c ****         break;
  59:can_manager.c ****     }
  60:can_manager.c **** 	return status;
  61:can_manager.c **** }
  62:can_manager.c **** 
  63:can_manager.c **** /*	compares received can message with the latest can message of the same id.
  64:can_manager.c **** 	if it is different, it will add update that DataPacket variable and add it to the can buffer	
  65:can_manager.c **** 	returns: 1 if message was updated, 0 if message same as before */
  66:can_manager.c **** int can_compare(DataPacket* prev_msg, DataPacket* new_msg) {
 122              		.loc 1 66 0
 123              		.cfi_startproc
 124              		@ args = 0, pretend = 0, frame = 16
 125              		@ frame_needed = 0, uses_anonymous_args = 0
 126              		@ link register save eliminated.
 127              	.LVL11:
 128 0000 F0B4     		push	{r4, r5, r6, r7}
 129              		.cfi_def_cfa_offset 16
 130              		.cfi_offset 4, -16
 131              		.cfi_offset 5, -12
 132              		.cfi_offset 6, -8
 133              		.cfi_offset 7, -4
 134 0002 84B0     		sub	sp, sp, #16
 135              		.cfi_def_cfa_offset 32
 136              	.LVL12:
  67:can_manager.c **** 	uint8_t i, j;
  68:can_manager.c **** 	uint8_t offset = 0;
  69:can_manager.c **** 	DataPacket temp;
  70:can_manager.c ****  
  71:can_manager.c **** 	temp.id = new_msg->id;
 137              		.loc 1 71 0
 138 0004 8D88     		ldrh	r5, [r1, #4]
  72:can_manager.c **** 	temp.length = new_msg->length;
 139              		.loc 1 72 0
 140 0006 8C79     		ldrb	r4, [r1, #6]	@ zero_extendqisi2
 141              	.LVL13:
  73:can_manager.c **** 	temp.millicounter = new_msg->millicounter;
  74:can_manager.c **** 	for(i=0; i<temp.length; i++) {
 142              		.loc 1 74 0
 143 0008 0023     		movs	r3, #0
 144 000a 07E0     		b	.L9
 145              	.LVL14:
ARM GAS  D:\Windows\AppData\Local\Temp\ccWMFQPN.s 			page 5


 146              	.L10:
  75:can_manager.c **** 		temp.data[i] = new_msg->data[i];
 147              		.loc 1 75 0 discriminator 3
 148 000c CA18     		adds	r2, r1, r3
 149 000e D679     		ldrb	r6, [r2, #7]	@ zero_extendqisi2
 150 0010 04AA     		add	r2, sp, #16
 151 0012 1A44     		add	r2, r2, r3
 152 0014 02F8096C 		strb	r6, [r2, #-9]
  74:can_manager.c **** 		temp.data[i] = new_msg->data[i];
 153              		.loc 1 74 0 discriminator 3
 154 0018 0133     		adds	r3, r3, #1
 155              	.LVL15:
 156 001a DBB2     		uxtb	r3, r3
 157              	.LVL16:
 158              	.L9:
  74:can_manager.c **** 		temp.data[i] = new_msg->data[i];
 159              		.loc 1 74 0 is_stmt 0 discriminator 1
 160 001c A342     		cmp	r3, r4
 161 001e F5D3     		bcc	.L10
 162 0020 0022     		movs	r2, #0
 163 0022 08E0     		b	.L11
 164              	.LVL17:
 165              	.L12:
  76:can_manager.c **** 	}
  77:can_manager.c **** 	
  78:can_manager.c **** 	//bytes received in little endian so have to reverse to big endian 32bits
  79:can_manager.c **** 	for(i=0; i<(new_msg->length/2); i++) {		//swap bytes 0-3
  80:can_manager.c **** 		new_msg->data[i+offset] = temp.data[offset + temp.length/2 - i - 1];
 166              		.loc 1 80 0 is_stmt 1 discriminator 3
 167 0024 9B1A     		subs	r3, r3, r2
 168 0026 04AE     		add	r6, sp, #16
 169 0028 3344     		add	r3, r3, r6
 170 002a 13F80A6C 		ldrb	r6, [r3, #-10]	@ zero_extendqisi2
 171 002e 8B18     		adds	r3, r1, r2
 172 0030 DE71     		strb	r6, [r3, #7]
  79:can_manager.c **** 		new_msg->data[i+offset] = temp.data[offset + temp.length/2 - i - 1];
 173              		.loc 1 79 0 discriminator 3
 174 0032 0132     		adds	r2, r2, #1
 175              	.LVL18:
 176 0034 D2B2     		uxtb	r2, r2
 177              	.LVL19:
 178              	.L11:
  79:can_manager.c **** 		new_msg->data[i+offset] = temp.data[offset + temp.length/2 - i - 1];
 179              		.loc 1 79 0 is_stmt 0 discriminator 1
 180 0036 6308     		lsrs	r3, r4, #1
 181 0038 9342     		cmp	r3, r2
 182 003a F3D8     		bhi	.L12
 183 003c 0022     		movs	r2, #0
 184              	.LVL20:
 185 003e 08E0     		b	.L13
 186              	.LVL21:
 187              	.L14:
  81:can_manager.c **** 	}//for
  82:can_manager.c **** 	offset = 4;
  83:can_manager.c **** 	for(i=0; i<(new_msg->length/2); i++) {		//swap bytes 4-7
  84:can_manager.c **** 		new_msg->data[i+offset] = temp.data[offset + temp.length/2 - i - 1];
 188              		.loc 1 84 0 is_stmt 1 discriminator 3
ARM GAS  D:\Windows\AppData\Local\Temp\ccWMFQPN.s 			page 6


 189 0040 9E1A     		subs	r6, r3, r2
 190 0042 04AF     		add	r7, sp, #16
 191 0044 3E44     		add	r6, r6, r7
 192 0046 16F8067C 		ldrb	r7, [r6, #-6]	@ zero_extendqisi2
 193 004a 8E18     		adds	r6, r1, r2
 194 004c F772     		strb	r7, [r6, #11]
  83:can_manager.c **** 		new_msg->data[i+offset] = temp.data[offset + temp.length/2 - i - 1];
 195              		.loc 1 83 0 discriminator 3
 196 004e 0132     		adds	r2, r2, #1
 197              	.LVL22:
 198 0050 D2B2     		uxtb	r2, r2
 199              	.LVL23:
 200              	.L13:
  83:can_manager.c **** 		new_msg->data[i+offset] = temp.data[offset + temp.length/2 - i - 1];
 201              		.loc 1 83 0 is_stmt 0 discriminator 1
 202 0052 9A42     		cmp	r2, r3
 203 0054 F4D3     		bcc	.L14
 204 0056 0023     		movs	r3, #0
 205 0058 19E0     		b	.L15
 206              	.LVL24:
 207              	.L20:
  85:can_manager.c **** 	}//for
  86:can_manager.c **** 	
  87:can_manager.c **** 	for(i=0; i<new_msg->length; i++) {					//compare all 8 data bytes
  88:can_manager.c **** 		if(prev_msg->data[i] != new_msg->data[i]) {		//update it if data[] has changed
 208              		.loc 1 88 0 is_stmt 1
 209 005a C218     		adds	r2, r0, r3
 210 005c D679     		ldrb	r6, [r2, #7]	@ zero_extendqisi2
 211 005e CA18     		adds	r2, r1, r3
 212 0060 D279     		ldrb	r2, [r2, #7]	@ zero_extendqisi2
 213 0062 9642     		cmp	r6, r2
 214 0064 11D0     		beq	.L16
  89:can_manager.c **** 			prev_msg->id = new_msg->id;
 215              		.loc 1 89 0
 216 0066 8580     		strh	r5, [r0, #4]	@ movhi
  90:can_manager.c **** 			prev_msg->length = new_msg->length;
 217              		.loc 1 90 0
 218 0068 8B79     		ldrb	r3, [r1, #6]	@ zero_extendqisi2
 219              	.LVL25:
 220 006a 8371     		strb	r3, [r0, #6]
  91:can_manager.c **** 			prev_msg->millicounter = new_msg->millicounter;	
 221              		.loc 1 91 0
 222 006c 0B68     		ldr	r3, [r1]
 223 006e 0360     		str	r3, [r0]
 224              	.LVL26:
  92:can_manager.c **** 			for(j=0; j<new_msg->length; j++) {
 225              		.loc 1 92 0
 226 0070 0023     		movs	r3, #0
 227 0072 05E0     		b	.L17
 228              	.LVL27:
 229              	.L18:
  93:can_manager.c **** 				prev_msg->data[j] = new_msg->data[j];
 230              		.loc 1 93 0 discriminator 3
 231 0074 CA18     		adds	r2, r1, r3
 232 0076 D479     		ldrb	r4, [r2, #7]	@ zero_extendqisi2
 233 0078 C218     		adds	r2, r0, r3
 234 007a D471     		strb	r4, [r2, #7]
ARM GAS  D:\Windows\AppData\Local\Temp\ccWMFQPN.s 			page 7


  92:can_manager.c **** 			for(j=0; j<new_msg->length; j++) {
 235              		.loc 1 92 0 discriminator 3
 236 007c 0133     		adds	r3, r3, #1
 237              	.LVL28:
 238 007e DBB2     		uxtb	r3, r3
 239              	.LVL29:
 240              	.L17:
  92:can_manager.c **** 			for(j=0; j<new_msg->length; j++) {
 241              		.loc 1 92 0 is_stmt 0 discriminator 1
 242 0080 8A79     		ldrb	r2, [r1, #6]	@ zero_extendqisi2
 243 0082 9A42     		cmp	r2, r3
 244 0084 F6D8     		bhi	.L18
  94:can_manager.c **** 			}
  95:can_manager.c **** 			
  96:can_manager.c **** 			return 1;
 245              		.loc 1 96 0 is_stmt 1
 246 0086 0120     		movs	r0, #1
 247              	.LVL30:
 248 0088 04E0     		b	.L19
 249              	.LVL31:
 250              	.L16:
  87:can_manager.c **** 		if(prev_msg->data[i] != new_msg->data[i]) {		//update it if data[] has changed
 251              		.loc 1 87 0 discriminator 2
 252 008a 0133     		adds	r3, r3, #1
 253              	.LVL32:
 254 008c DBB2     		uxtb	r3, r3
 255              	.LVL33:
 256              	.L15:
  87:can_manager.c **** 		if(prev_msg->data[i] != new_msg->data[i]) {		//update it if data[] has changed
 257              		.loc 1 87 0 is_stmt 0 discriminator 1
 258 008e A342     		cmp	r3, r4
 259 0090 E3D3     		bcc	.L20
  97:can_manager.c **** 		}//if
  98:can_manager.c **** 	}//for
  99:can_manager.c **** 	return 0;
 260              		.loc 1 99 0 is_stmt 1
 261 0092 0020     		movs	r0, #0
 262              	.LVL34:
 263              	.L19:
 100:can_manager.c **** }
 264              		.loc 1 100 0
 265 0094 04B0     		add	sp, sp, #16
 266              		.cfi_def_cfa_offset 16
 267              		@ sp needed
 268 0096 F0BC     		pop	{r4, r5, r6, r7}
 269              		.cfi_restore 7
 270              		.cfi_restore 6
 271              		.cfi_restore 5
 272              		.cfi_restore 4
 273              		.cfi_def_cfa_offset 0
 274 0098 7047     		bx	lr
 275              		.cfi_endproc
 276              	.LFE66:
 277              		.size	can_compare, .-can_compare
 278 009a 00BF     		.section	.text.can_process_BMS_CURR,"ax",%progbits
 279              		.align	2
 280              		.global	can_process_BMS_CURR
ARM GAS  D:\Windows\AppData\Local\Temp\ccWMFQPN.s 			page 8


 281              		.thumb
 282              		.thumb_func
 283              		.type	can_process_BMS_CURR, %function
 284              	can_process_BMS_CURR:
 285              	.LFB67:
 101:can_manager.c **** 
 102:can_manager.c **** //formats and gets lcd pos
 103:can_manager.c **** void can_process_BMS_CURR() {
 286              		.loc 1 103 0
 287              		.cfi_startproc
 288              		@ args = 0, pretend = 0, frame = 8
 289              		@ frame_needed = 0, uses_anonymous_args = 0
 290 0000 00B5     		push	{lr}
 291              		.cfi_def_cfa_offset 4
 292              		.cfi_offset 14, -4
 293 0002 83B0     		sub	sp, sp, #12
 294              		.cfi_def_cfa_offset 16
 295              	.LVL35:
 104:can_manager.c **** 	uint16_t current;
 105:can_manager.c **** 	char8 curr_string[4]; 
 106:can_manager.c **** 	
 107:can_manager.c **** 	uint16_t byte2 = BMS_CURRENT.data[1] << 8;
 108:can_manager.c **** 	uint16_t byte1 = BMS_CURRENT.data[2];
 109:can_manager.c **** 	current = byte2 | byte1;
 110:can_manager.c **** 	
 111:can_manager.c **** 	current = 0x10;
 112:can_manager.c **** 	sprintf(curr_string, "%03dC", current); 
 296              		.loc 1 112 0
 297 0004 01A8     		add	r0, sp, #4
 298 0006 0749     		ldr	r1, .L24
 299 0008 1022     		movs	r2, #16
 300 000a FFF7FEFF 		bl	sprintf
 301              	.LVL36:
 113:can_manager.c **** 	LCD_Position(1, 3);
 302              		.loc 1 113 0
 303 000e 0120     		movs	r0, #1
 304 0010 0321     		movs	r1, #3
 305 0012 FFF7FEFF 		bl	LCD_Position
 306              	.LVL37:
 114:can_manager.c **** 	LCD_PrintString(curr_string);
 307              		.loc 1 114 0
 308 0016 01A8     		add	r0, sp, #4
 309 0018 FFF7FEFF 		bl	LCD_PrintString
 310              	.LVL38:
 115:can_manager.c **** }
 311              		.loc 1 115 0
 312 001c 03B0     		add	sp, sp, #12
 313              		.cfi_def_cfa_offset 4
 314              		@ sp needed
 315 001e 5DF804FB 		ldr	pc, [sp], #4
 316              	.L25:
 317 0022 00BF     		.align	2
 318              	.L24:
 319 0024 00000000 		.word	.LC0
 320              		.cfi_endproc
 321              	.LFE67:
 322              		.size	can_process_BMS_CURR, .-can_process_BMS_CURR
ARM GAS  D:\Windows\AppData\Local\Temp\ccWMFQPN.s 			page 9


 323              		.section	.text.can_process_BMS_VOLT,"ax",%progbits
 324              		.align	2
 325              		.global	can_process_BMS_VOLT
 326              		.thumb
 327              		.thumb_func
 328              		.type	can_process_BMS_VOLT, %function
 329              	can_process_BMS_VOLT:
 330              	.LFB68:
 116:can_manager.c **** 
 117:can_manager.c **** //gets pack voltage
 118:can_manager.c **** void can_process_BMS_VOLT() {
 331              		.loc 1 118 0
 332              		.cfi_startproc
 333              		@ args = 0, pretend = 0, frame = 8
 334              		@ frame_needed = 0, uses_anonymous_args = 0
 335 0000 00B5     		push	{lr}
 336              		.cfi_def_cfa_offset 4
 337              		.cfi_offset 14, -4
 338 0002 83B0     		sub	sp, sp, #12
 339              		.cfi_def_cfa_offset 16
 340              	.LVL39:
 119:can_manager.c **** 	uint32_t voltage;
 120:can_manager.c **** 	char8 volt_string[6];
 121:can_manager.c **** 	
 122:can_manager.c **** 	uint32_t byte4 = BMS_VOLTAGE.data[7] << 24;
 123:can_manager.c **** 	uint32_t byte3 = BMS_VOLTAGE.data[6] << 16;
 124:can_manager.c **** 	uint32_t byte2 = BMS_VOLTAGE.data[5] << 8;
 125:can_manager.c **** 	uint32_t byte1 = BMS_VOLTAGE.data[4];
 126:can_manager.c **** 	voltage = byte4 | byte3 | byte2 | byte1;
 127:can_manager.c **** 	
 128:can_manager.c **** 	voltage = 0x0001C3E3;
 129:can_manager.c **** 	sprintf(volt_string, "%03d.%01dV", voltage/1000, voltage/100%10);
 341              		.loc 1 129 0
 342 0004 6846     		mov	r0, sp
 343 0006 0749     		ldr	r1, .L28
 344 0008 7322     		movs	r2, #115
 345 000a 0623     		movs	r3, #6
 346 000c FFF7FEFF 		bl	sprintf
 347              	.LVL40:
 130:can_manager.c **** 	LCD_Position(0, 3);
 348              		.loc 1 130 0
 349 0010 0020     		movs	r0, #0
 350 0012 0321     		movs	r1, #3
 351 0014 FFF7FEFF 		bl	LCD_Position
 352              	.LVL41:
 131:can_manager.c **** 	LCD_PrintString(volt_string);
 353              		.loc 1 131 0
 354 0018 6846     		mov	r0, sp
 355 001a FFF7FEFF 		bl	LCD_PrintString
 356              	.LVL42:
 132:can_manager.c **** }
 357              		.loc 1 132 0
 358 001e 03B0     		add	sp, sp, #12
 359              		.cfi_def_cfa_offset 4
 360              		@ sp needed
 361 0020 5DF804FB 		ldr	pc, [sp], #4
 362              	.L29:
ARM GAS  D:\Windows\AppData\Local\Temp\ccWMFQPN.s 			page 10


 363              		.align	2
 364              	.L28:
 365 0024 08000000 		.word	.LC1
 366              		.cfi_endproc
 367              	.LFE68:
 368              		.size	can_process_BMS_VOLT, .-can_process_BMS_VOLT
 369              		.section	.text.can_process_BMS_TEMP,"ax",%progbits
 370              		.align	2
 371              		.global	can_process_BMS_TEMP
 372              		.thumb
 373              		.thumb_func
 374              		.type	can_process_BMS_TEMP, %function
 375              	can_process_BMS_TEMP:
 376              	.LFB69:
 133:can_manager.c **** 
 134:can_manager.c **** //highest temp
 135:can_manager.c **** void can_process_BMS_TEMP() {
 377              		.loc 1 135 0
 378              		.cfi_startproc
 379              		@ args = 0, pretend = 0, frame = 0
 380              		@ frame_needed = 0, uses_anonymous_args = 0
 381 0000 08B5     		push	{r3, lr}
 382              		.cfi_def_cfa_offset 8
 383              		.cfi_offset 3, -8
 384              		.cfi_offset 14, -4
 385              	.LVL43:
 136:can_manager.c **** 	uint8_t temperature = BMS_TEMP.data[7];	//displays as decimal
 137:can_manager.c **** 	temperature = 0x25;
 138:can_manager.c **** 	LCD_Position(1, 13);
 386              		.loc 1 138 0
 387 0002 0120     		movs	r0, #1
 388 0004 0D21     		movs	r1, #13
 389 0006 FFF7FEFF 		bl	LCD_Position
 390              	.LVL44:
 139:can_manager.c **** 	LCD_PrintHexUint8(temperature);
 391              		.loc 1 139 0
 392 000a 2520     		movs	r0, #37
 393 000c FFF7FEFF 		bl	LCD_PrintInt8
 394              	.LVL45:
 395 0010 08BD     		pop	{r3, pc}
 396              		.cfi_endproc
 397              	.LFE69:
 398              		.size	can_process_BMS_TEMP, .-can_process_BMS_TEMP
 399 0012 00BF     		.section	.text.can_process,"ax",%progbits
 400              		.align	2
 401              		.global	can_process
 402              		.thumb
 403              		.thumb_func
 404              		.type	can_process, %function
 405              	can_process:
 406              	.LFB65:
  38:can_manager.c **** 	int status = 0;		//returns 1 if message is updated
 407              		.loc 1 38 0
 408              		.cfi_startproc
 409              		@ args = 0, pretend = 0, frame = 0
 410              		@ frame_needed = 0, uses_anonymous_args = 0
 411              	.LVL46:
ARM GAS  D:\Windows\AppData\Local\Temp\ccWMFQPN.s 			page 11


 412 0000 10B5     		push	{r4, lr}
 413              		.cfi_def_cfa_offset 8
 414              		.cfi_offset 4, -8
 415              		.cfi_offset 14, -4
 416 0002 0146     		mov	r1, r0
 417              	.LVL47:
  40:can_manager.c **** 	case BMS_CURRENT_ID:		//0x288
 418              		.loc 1 40 0
 419 0004 8388     		ldrh	r3, [r0, #4]
 420 0006 B3F5627F 		cmp	r3, #904
 421 000a 0DD0     		beq	.L34
 422 000c B3F5916F 		cmp	r3, #1160
 423 0010 12D0     		beq	.L35
 424 0012 B3F5227F 		cmp	r3, #648
 425 0016 17D1     		bne	.L38
  42:can_manager.c **** 		if(status)
 426              		.loc 1 42 0
 427 0018 0D48     		ldr	r0, .L40
 428              	.LVL48:
 429 001a FFF7FEFF 		bl	can_compare
 430              	.LVL49:
  43:can_manager.c **** 			can_process_BMS_CURR();
 431              		.loc 1 43 0
 432 001e 0446     		mov	r4, r0
 433 0020 98B1     		cbz	r0, .L33
  44:can_manager.c **** 		break;
 434              		.loc 1 44 0
 435 0022 FFF7FEFF 		bl	can_process_BMS_CURR
 436              	.LVL50:
 437 0026 10E0     		b	.L33
 438              	.LVL51:
 439              	.L34:
  47:can_manager.c **** 		if(status)
 440              		.loc 1 47 0
 441 0028 0A48     		ldr	r0, .L40+4
 442              	.LVL52:
 443 002a FFF7FEFF 		bl	can_compare
 444              	.LVL53:
  48:can_manager.c **** 			can_process_BMS_VOLT();
 445              		.loc 1 48 0
 446 002e 0446     		mov	r4, r0
 447 0030 58B1     		cbz	r0, .L33
  49:can_manager.c **** 		break;
 448              		.loc 1 49 0
 449 0032 FFF7FEFF 		bl	can_process_BMS_VOLT
 450              	.LVL54:
 451 0036 08E0     		b	.L33
 452              	.LVL55:
 453              	.L35:
  52:can_manager.c **** 		if(status)
 454              		.loc 1 52 0
 455 0038 0748     		ldr	r0, .L40+8
 456              	.LVL56:
 457 003a FFF7FEFF 		bl	can_compare
 458              	.LVL57:
  53:can_manager.c **** 			can_process_BMS_TEMP();
 459              		.loc 1 53 0
ARM GAS  D:\Windows\AppData\Local\Temp\ccWMFQPN.s 			page 12


 460 003e 0446     		mov	r4, r0
 461 0040 18B1     		cbz	r0, .L33
  54:can_manager.c **** 		break;
 462              		.loc 1 54 0
 463 0042 FFF7FEFF 		bl	can_process_BMS_TEMP
 464              	.LVL58:
 465 0046 00E0     		b	.L33
 466              	.LVL59:
 467              	.L38:
  57:can_manager.c ****         break;
 468              		.loc 1 57 0
 469 0048 0024     		movs	r4, #0
 470              	.LVL60:
 471              	.L33:
  61:can_manager.c **** 
 472              		.loc 1 61 0
 473 004a 2046     		mov	r0, r4
 474 004c 10BD     		pop	{r4, pc}
 475              	.LVL61:
 476              	.L41:
 477 004e 00BF     		.align	2
 478              	.L40:
 479 0050 00000000 		.word	BMS_STATUS
 480 0054 00000000 		.word	BMS_VOLTAGE
 481 0058 00000000 		.word	BMS_TEMP
 482              		.cfi_endproc
 483              	.LFE65:
 484              		.size	can_process, .-can_process
 485              		.section	.text.can_test_send,"ax",%progbits
 486              		.align	2
 487              		.global	can_test_send
 488              		.thumb
 489              		.thumb_func
 490              		.type	can_test_send, %function
 491              	can_test_send:
 492              	.LFB70:
 140:can_manager.c **** }
 141:can_manager.c **** 
 142:can_manager.c **** 
 143:can_manager.c **** void can_test_send() {
 493              		.loc 1 143 0
 494              		.cfi_startproc
 495              		@ args = 0, pretend = 0, frame = 24
 496              		@ frame_needed = 0, uses_anonymous_args = 0
 497 0000 00B5     		push	{lr}
 498              		.cfi_def_cfa_offset 4
 499              		.cfi_offset 14, -4
 500 0002 87B0     		sub	sp, sp, #28
 501              		.cfi_def_cfa_offset 32
 144:can_manager.c **** 	uint8_t i;
 145:can_manager.c **** 	CAN_TX_MSG message;
 146:can_manager.c **** 	CAN_DATA_BYTES_MSG test_data;
 147:can_manager.c **** 
 148:can_manager.c **** 	message.id = 0x100;
 502              		.loc 1 148 0
 503 0004 4FF48073 		mov	r3, #256
 504 0008 0393     		str	r3, [sp, #12]
ARM GAS  D:\Windows\AppData\Local\Temp\ccWMFQPN.s 			page 13


 149:can_manager.c **** 	message.rtr = 0;
 505              		.loc 1 149 0
 506 000a 0023     		movs	r3, #0
 507 000c 8DF81030 		strb	r3, [sp, #16]
 150:can_manager.c **** 	message.ide = 0;
 508              		.loc 1 150 0
 509 0010 8DF81130 		strb	r3, [sp, #17]
 151:can_manager.c **** 	message.dlc = 0x08;
 510              		.loc 1 151 0
 511 0014 0822     		movs	r2, #8
 512 0016 8DF81220 		strb	r2, [sp, #18]
 152:can_manager.c **** 	message.irq = 1;
 513              		.loc 1 152 0
 514 001a 0122     		movs	r2, #1
 515 001c 8DF81320 		strb	r2, [sp, #19]
 153:can_manager.c **** 	message.msg = &test_data;
 516              		.loc 1 153 0
 517 0020 01AA     		add	r2, sp, #4
 518 0022 0592     		str	r2, [sp, #20]
 519              	.LVL62:
 154:can_manager.c **** 
 155:can_manager.c **** 	for(i=0;i<8;i++)
 520              		.loc 1 155 0
 521 0024 06E0     		b	.L43
 522              	.LVL63:
 523              	.L44:
 156:can_manager.c **** 		test_data.byte[i] = 2;
 524              		.loc 1 156 0 discriminator 3
 525 0026 06AA     		add	r2, sp, #24
 526 0028 1A44     		add	r2, r2, r3
 527 002a 0221     		movs	r1, #2
 528 002c 02F8141C 		strb	r1, [r2, #-20]
 155:can_manager.c **** 		test_data.byte[i] = 2;
 529              		.loc 1 155 0 discriminator 3
 530 0030 0133     		adds	r3, r3, #1
 531              	.LVL64:
 532 0032 DBB2     		uxtb	r3, r3
 533              	.LVL65:
 534              	.L43:
 155:can_manager.c **** 		test_data.byte[i] = 2;
 535              		.loc 1 155 0 is_stmt 0 discriminator 1
 536 0034 072B     		cmp	r3, #7
 537 0036 F6D9     		bls	.L44
 157:can_manager.c **** 
 158:can_manager.c **** 	CAN_SendMsg(&message);
 538              		.loc 1 158 0 is_stmt 1
 539 0038 03A8     		add	r0, sp, #12
 540 003a FFF7FEFF 		bl	CAN_SendMsg
 541              	.LVL66:
 159:can_manager.c **** } // can_test_send()
 542              		.loc 1 159 0
 543 003e 07B0     		add	sp, sp, #28
 544              		.cfi_def_cfa_offset 4
 545              		@ sp needed
 546 0040 5DF804FB 		ldr	pc, [sp], #4
 547              		.cfi_endproc
 548              	.LFE70:
ARM GAS  D:\Windows\AppData\Local\Temp\ccWMFQPN.s 			page 14


 549              		.size	can_test_send, .-can_test_send
 550              		.section	.text.can_test_receive,"ax",%progbits
 551              		.align	2
 552              		.global	can_test_receive
 553              		.thumb
 554              		.thumb_func
 555              		.type	can_test_receive, %function
 556              	can_test_receive:
 557              	.LFB71:
 160:can_manager.c **** 
 161:can_manager.c **** 
 162:can_manager.c **** void can_test_receive() {
 558              		.loc 1 162 0
 559              		.cfi_startproc
 560              		@ args = 0, pretend = 0, frame = 0
 561              		@ frame_needed = 0, uses_anonymous_args = 0
 562              		@ link register save eliminated.
 563              	.LVL67:
 163:can_manager.c **** 	DataPacket test_msg;
 164:can_manager.c ****     uint8 i;
 165:can_manager.c **** 	
 166:can_manager.c ****     //test packets
 167:can_manager.c ****     for(i=100; i<115; i++) { 
 564              		.loc 1 167 0
 565 0000 6423     		movs	r3, #100
 566 0002 01E0     		b	.L47
 567              	.LVL68:
 568              	.L48:
 569              		.loc 1 167 0 is_stmt 0 discriminator 3
 570 0004 0133     		adds	r3, r3, #1
 571              	.LVL69:
 572 0006 DBB2     		uxtb	r3, r3
 573              	.LVL70:
 574              	.L47:
 575              		.loc 1 167 0 discriminator 1
 576 0008 722B     		cmp	r3, #114
 577 000a FBD9     		bls	.L48
 168:can_manager.c **** 		//test_msg.millicounter = millis_timer_ReadCounter();    
 169:can_manager.c **** 		test_msg.id = 0x0923;
 170:can_manager.c **** 		test_msg.length = 8;
 171:can_manager.c **** 		test_msg.data[0]= 1;
 172:can_manager.c **** 		test_msg.data[1]= 2;
 173:can_manager.c **** 		test_msg.data[2]= 3;
 174:can_manager.c **** 		test_msg.data[3]= 4;
 175:can_manager.c **** 		test_msg.data[4]= 5;
 176:can_manager.c **** 		test_msg.data[5]= 6;
 177:can_manager.c **** 		test_msg.data[6]= 7;
 178:can_manager.c ****         test_msg.data[7]= 8;
 179:can_manager.c **** 		
 180:can_manager.c **** 		//msg_recieve(&test_msg);
 181:can_manager.c ****     } //for
 182:can_manager.c **** }
 578              		.loc 1 182 0 is_stmt 1
 579 000c 7047     		bx	lr
 580              		.cfi_endproc
 581              	.LFE71:
 582              		.size	can_test_receive, .-can_test_receive
ARM GAS  D:\Windows\AppData\Local\Temp\ccWMFQPN.s 			page 15


 583              		.comm	BMS_TEMP,16,4
 584              		.comm	BMS_VOLTAGE,16,4
 585              		.comm	BMS_CURRENT,16,4
 586              		.comm	BMS_STATUS,16,4
 587 000e 00BF     		.section	.rodata.str1.4,"aMS",%progbits,1
 588              		.align	2
 589              	.LC0:
 590 0000 25303364 		.ascii	"%03dC\000"
 590      4300
 591 0006 0000     		.space	2
 592              	.LC1:
 593 0008 25303364 		.ascii	"%03d.%01dV\000"
 593      2E253031 
 593      645600
 594 0013 00       		.text
 595              	.Letext0:
 596              		.file 2 "d:\\programming\\cypress\\psoc creator\\4.0\\psoc creator\\import\\gnu\\arm\\4.9.3\\arm-n
 597              		.file 3 "d:\\programming\\cypress\\psoc creator\\4.0\\psoc creator\\import\\gnu\\arm\\4.9.3\\arm-n
 598              		.file 4 "Generated_Source\\PSoC5/cytypes.h"
 599              		.file 5 "Generated_Source\\PSoC5/CAN.h"
 600              		.file 6 "data.h"
 601              		.file 7 "Generated_Source\\PSoC5/core_cm3.h"
 602              		.file 8 "Generated_Source\\PSoC5/LCD.h"
 603              		.file 9 "d:\\programming\\cypress\\psoc creator\\4.0\\psoc creator\\import\\gnu\\arm\\4.9.3\\arm-n