ARM GAS  D:\Windows\AppData\Local\Temp\ccl8MM4e.s 			page 1


   1              		.syntax unified
   2              		.cpu cortex-m3
   3              		.fpu softvfp
   4              		.eabi_attribute 20, 1
   5              		.eabi_attribute 21, 1
   6              		.eabi_attribute 23, 3
   7              		.eabi_attribute 24, 1
   8              		.eabi_attribute 25, 1
   9              		.eabi_attribute 26, 1
  10              		.eabi_attribute 30, 1
  11              		.eabi_attribute 34, 1
  12              		.eabi_attribute 18, 4
  13              		.thumb
  14              		.file	"lcd_manager.c"
  15              		.text
  16              	.Ltext0:
  17              		.cfi_sections	.debug_frame
  18              		.section	.text.lcd_init,"ax",%progbits
  19              		.align	2
  20              		.global	lcd_init
  21              		.thumb
  22              		.thumb_func
  23              		.type	lcd_init, %function
  24              	lcd_init:
  25              	.LFB63:
  26              		.file 1 "lcd_manager.c"
   1:lcd_manager.c **** 
   2:lcd_manager.c **** #include "lcd_manager.h"
   3:lcd_manager.c **** #include <stdlib.h>
   4:lcd_manager.c **** #include <stdio.h>
   5:lcd_manager.c **** int count = 0;
   6:lcd_manager.c **** 
   7:lcd_manager.c **** void lcd_init() {
  27              		.loc 1 7 0
  28              		.cfi_startproc
  29              		@ args = 0, pretend = 0, frame = 40
  30              		@ frame_needed = 0, uses_anonymous_args = 0
  31 0000 30B5     		push	{r4, r5, lr}
  32              		.cfi_def_cfa_offset 12
  33              		.cfi_offset 4, -12
  34              		.cfi_offset 5, -8
  35              		.cfi_offset 14, -4
  36 0002 8BB0     		sub	sp, sp, #44
  37              		.cfi_def_cfa_offset 56
   8:lcd_manager.c **** 	LCD_Start();
  38              		.loc 1 8 0
  39 0004 FFF7FEFF 		bl	LCD_Start
  40              	.LVL0:
   9:lcd_manager.c **** 	char8 intro1[] = "Formula Racing";
  41              		.loc 1 9 0
  42 0008 0E4B     		ldr	r3, .L3
  43 000a 06AC     		add	r4, sp, #24
  44 000c 0FCB     		ldmia	r3, {r0, r1, r2, r3}
  45 000e 07C4     		stmia	r4!, {r0, r1, r2}
  46 0010 24F8023B 		strh	r3, [r4], #2	@ movhi
  47 0014 1B0C     		lsrs	r3, r3, #16
  48 0016 2370     		strb	r3, [r4]
ARM GAS  D:\Windows\AppData\Local\Temp\ccl8MM4e.s 			page 2


  10:lcd_manager.c **** 	char8 intro2[] = "Charging Circuit";
  49              		.loc 1 10 0
  50 0018 01AC     		add	r4, sp, #4
  51 001a 0B4D     		ldr	r5, .L3+4
  52 001c 0FCD     		ldmia	r5!, {r0, r1, r2, r3}
  53 001e 0FC4     		stmia	r4!, {r0, r1, r2, r3}
  54 0020 2B68     		ldr	r3, [r5]
  55 0022 2370     		strb	r3, [r4]
  11:lcd_manager.c **** 	LCD_PrintString(intro1);
  56              		.loc 1 11 0
  57 0024 06A8     		add	r0, sp, #24
  58 0026 FFF7FEFF 		bl	LCD_PrintString
  59              	.LVL1:
  12:lcd_manager.c **** 	LCD_Position(1, 0);
  60              		.loc 1 12 0
  61 002a 0120     		movs	r0, #1
  62 002c 0021     		movs	r1, #0
  63 002e FFF7FEFF 		bl	LCD_Position
  64              	.LVL2:
  13:lcd_manager.c **** 	LCD_PrintString(intro2);
  65              		.loc 1 13 0
  66 0032 01A8     		add	r0, sp, #4
  67 0034 FFF7FEFF 		bl	LCD_PrintString
  68              	.LVL3:
  14:lcd_manager.c **** 	CyDelay(3000);
  69              		.loc 1 14 0
  70 0038 40F6B830 		movw	r0, #3000
  71 003c FFF7FEFF 		bl	CyDelay
  72              	.LVL4:
  15:lcd_manager.c **** }
  73              		.loc 1 15 0
  74 0040 0BB0     		add	sp, sp, #44
  75              		.cfi_def_cfa_offset 12
  76              		@ sp needed
  77 0042 30BD     		pop	{r4, r5, pc}
  78              	.L4:
  79              		.align	2
  80              	.L3:
  81 0044 00000000 		.word	.LC0
  82 0048 10000000 		.word	.LC1
  83              		.cfi_endproc
  84              	.LFE63:
  85              		.size	lcd_init, .-lcd_init
  86              		.section	.text.lcd_print_bms,"ax",%progbits
  87              		.align	2
  88              		.global	lcd_print_bms
  89              		.thumb
  90              		.thumb_func
  91              		.type	lcd_print_bms, %function
  92              	lcd_print_bms:
  93              	.LFB64:
  16:lcd_manager.c **** 	
  17:lcd_manager.c **** void lcd_print_bms() {
  94              		.loc 1 17 0
  95              		.cfi_startproc
  96              		@ args = 0, pretend = 0, frame = 32
  97              		@ frame_needed = 0, uses_anonymous_args = 0
ARM GAS  D:\Windows\AppData\Local\Temp\ccl8MM4e.s 			page 3


  98 0000 30B5     		push	{r4, r5, lr}
  99              		.cfi_def_cfa_offset 12
 100              		.cfi_offset 4, -12
 101              		.cfi_offset 5, -8
 102              		.cfi_offset 14, -4
 103 0002 89B0     		sub	sp, sp, #36
 104              		.cfi_def_cfa_offset 48
  18:lcd_manager.c **** 	char8 BMS1[] = "V: 000.0V";
 105              		.loc 1 18 0
 106 0004 0E4A     		ldr	r2, .L7
 107 0006 05AB     		add	r3, sp, #20
 108 0008 07CA     		ldmia	r2, {r0, r1, r2}
 109 000a 03C3     		stmia	r3!, {r0, r1}
 110 000c 1A80     		strh	r2, [r3]	@ movhi
  19:lcd_manager.c **** 	char8 BMS2[] = "C: 000A   T: 00C";  
 111              		.loc 1 19 0
 112 000e 6C46     		mov	r4, sp
 113 0010 0C4D     		ldr	r5, .L7+4
 114 0012 0FCD     		ldmia	r5!, {r0, r1, r2, r3}
 115 0014 0FC4     		stmia	r4!, {r0, r1, r2, r3}
 116 0016 2B68     		ldr	r3, [r5]
 117 0018 2370     		strb	r3, [r4]
  20:lcd_manager.c **** 	
  21:lcd_manager.c **** 	LCD_ClearDisplay();
 118              		.loc 1 21 0
 119 001a 0120     		movs	r0, #1
 120 001c FFF7FEFF 		bl	LCD_WriteControl
 121              	.LVL5:
  22:lcd_manager.c **** 	LCD_Position(0, 0);
 122              		.loc 1 22 0
 123 0020 0020     		movs	r0, #0
 124 0022 0146     		mov	r1, r0
 125 0024 FFF7FEFF 		bl	LCD_Position
 126              	.LVL6:
  23:lcd_manager.c **** 	LCD_PrintString(BMS1);
 127              		.loc 1 23 0
 128 0028 05A8     		add	r0, sp, #20
 129 002a FFF7FEFF 		bl	LCD_PrintString
 130              	.LVL7:
  24:lcd_manager.c **** 	LCD_Position(1, 0);
 131              		.loc 1 24 0
 132 002e 0120     		movs	r0, #1
 133 0030 0021     		movs	r1, #0
 134 0032 FFF7FEFF 		bl	LCD_Position
 135              	.LVL8:
  25:lcd_manager.c **** 	LCD_PrintString(BMS2);
 136              		.loc 1 25 0
 137 0036 6846     		mov	r0, sp
 138 0038 FFF7FEFF 		bl	LCD_PrintString
 139              	.LVL9:
  26:lcd_manager.c **** }
 140              		.loc 1 26 0
 141 003c 09B0     		add	sp, sp, #36
 142              		.cfi_def_cfa_offset 12
 143              		@ sp needed
 144 003e 30BD     		pop	{r4, r5, pc}
 145              	.L8:
ARM GAS  D:\Windows\AppData\Local\Temp\ccl8MM4e.s 			page 4


 146              		.align	2
 147              	.L7:
 148 0040 24000000 		.word	.LC2
 149 0044 30000000 		.word	.LC3
 150              		.cfi_endproc
 151              	.LFE64:
 152              		.size	lcd_print_bms, .-lcd_print_bms
 153              		.section	.text.lcd_test_print,"ax",%progbits
 154              		.align	2
 155              		.global	lcd_test_print
 156              		.thumb
 157              		.thumb_func
 158              		.type	lcd_test_print, %function
 159              	lcd_test_print:
 160              	.LFB65:
  27:lcd_manager.c **** 
  28:lcd_manager.c **** 
  29:lcd_manager.c **** void lcd_test_print() {
 161              		.loc 1 29 0
 162              		.cfi_startproc
 163              		@ args = 0, pretend = 0, frame = 16
 164              		@ frame_needed = 0, uses_anonymous_args = 0
 165 0000 00B5     		push	{lr}
 166              		.cfi_def_cfa_offset 4
 167              		.cfi_offset 14, -4
 168 0002 85B0     		sub	sp, sp, #20
 169              		.cfi_def_cfa_offset 24
  30:lcd_manager.c **** 	char8 const test_string[] = "Hi there, test!";
  31:lcd_manager.c **** 	char8 test_buf[32];
  32:lcd_manager.c **** 	
  33:lcd_manager.c **** 	//count++;
  34:lcd_manager.c **** 	//itoa(count, test_buf, 10);
  35:lcd_manager.c **** 	LCD_ClearDisplay();
 170              		.loc 1 35 0
 171 0004 0120     		movs	r0, #1
 172 0006 FFF7FEFF 		bl	LCD_WriteControl
 173              	.LVL10:
  36:lcd_manager.c **** 	//LCD_Position(0,0);
  37:lcd_manager.c **** 	//LCD_PrintString(test_buf);
  38:lcd_manager.c **** 	//LCD_PrintInt32(count);
  39:lcd_manager.c **** 	//LCD_PrintInt8(count);
  40:lcd_manager.c **** 	
  41:lcd_manager.c **** 	//voltage test print
  42:lcd_manager.c **** 	uint32_t voltage = 0x00017475;	//095.349
  43:lcd_manager.c **** 	char8 volt_string[5];
  44:lcd_manager.c **** 	LCD_Position(0,3);
 174              		.loc 1 44 0
 175 000a 0020     		movs	r0, #0
 176 000c 0321     		movs	r1, #3
 177 000e FFF7FEFF 		bl	LCD_Position
 178              	.LVL11:
  45:lcd_manager.c **** 	sprintf(volt_string, "%03d.%01d", voltage/1000, voltage/100%10);
 179              		.loc 1 45 0
 180 0012 02A8     		add	r0, sp, #8
 181 0014 0F49     		ldr	r1, .L11
 182 0016 5F22     		movs	r2, #95
 183 0018 0323     		movs	r3, #3
ARM GAS  D:\Windows\AppData\Local\Temp\ccl8MM4e.s 			page 5


 184 001a FFF7FEFF 		bl	sprintf
 185              	.LVL12:
  46:lcd_manager.c **** 	LCD_PrintString(volt_string);
 186              		.loc 1 46 0
 187 001e 02A8     		add	r0, sp, #8
 188 0020 FFF7FEFF 		bl	LCD_PrintString
 189              	.LVL13:
  47:lcd_manager.c **** 	
  48:lcd_manager.c **** 	//temp
  49:lcd_manager.c **** 	uint8_t temperature = 0x24;
  50:lcd_manager.c **** 	LCD_Position(1, 13);
 190              		.loc 1 50 0
 191 0024 0120     		movs	r0, #1
 192 0026 0D21     		movs	r1, #13
 193 0028 FFF7FEFF 		bl	LCD_Position
 194              	.LVL14:
  51:lcd_manager.c **** 	LCD_PrintHexUint8(temperature);
 195              		.loc 1 51 0
 196 002c 2420     		movs	r0, #36
 197 002e FFF7FEFF 		bl	LCD_PrintInt8
 198              	.LVL15:
  52:lcd_manager.c **** 	
  53:lcd_manager.c **** 	//current
  54:lcd_manager.c **** 	uint16_t current = 0x123;
  55:lcd_manager.c **** 	char8 curr_string[3];
  56:lcd_manager.c **** 	sprintf(curr_string, "%03d", current); 
 199              		.loc 1 56 0
 200 0032 01A8     		add	r0, sp, #4
 201 0034 0849     		ldr	r1, .L11+4
 202 0036 40F22312 		movw	r2, #291
 203 003a FFF7FEFF 		bl	sprintf
 204              	.LVL16:
  57:lcd_manager.c **** 	LCD_Position(1, 3);
 205              		.loc 1 57 0
 206 003e 0120     		movs	r0, #1
 207 0040 0321     		movs	r1, #3
 208 0042 FFF7FEFF 		bl	LCD_Position
 209              	.LVL17:
  58:lcd_manager.c **** 	LCD_PrintString(curr_string);
 210              		.loc 1 58 0
 211 0046 01A8     		add	r0, sp, #4
 212 0048 FFF7FEFF 		bl	LCD_PrintString
 213              	.LVL18:
  59:lcd_manager.c **** }
 214              		.loc 1 59 0
 215 004c 05B0     		add	sp, sp, #20
 216              		.cfi_def_cfa_offset 4
 217              		@ sp needed
 218 004e 5DF804FB 		ldr	pc, [sp], #4
 219              	.L12:
 220 0052 00BF     		.align	2
 221              	.L11:
 222 0054 44000000 		.word	.LC4
 223 0058 50000000 		.word	.LC5
 224              		.cfi_endproc
 225              	.LFE65:
 226              		.size	lcd_test_print, .-lcd_test_print
ARM GAS  D:\Windows\AppData\Local\Temp\ccl8MM4e.s 			page 6


 227              		.section	.text.lcd_print,"ax",%progbits
 228              		.align	2
 229              		.global	lcd_print
 230              		.thumb
 231              		.thumb_func
 232              		.type	lcd_print, %function
 233              	lcd_print:
 234              	.LFB66:
  60:lcd_manager.c **** 
  61:lcd_manager.c **** void lcd_print(char8* string_val) {
 235              		.loc 1 61 0
 236              		.cfi_startproc
 237              		@ args = 0, pretend = 0, frame = 0
 238              		@ frame_needed = 0, uses_anonymous_args = 0
 239              	.LVL19:
 240 0000 08B5     		push	{r3, lr}
 241              		.cfi_def_cfa_offset 8
 242              		.cfi_offset 3, -8
 243              		.cfi_offset 14, -4
  62:lcd_manager.c **** 	LCD_PrintString(string_val);
 244              		.loc 1 62 0
 245 0002 FFF7FEFF 		bl	LCD_PrintString
 246              	.LVL20:
 247 0006 08BD     		pop	{r3, pc}
 248              		.cfi_endproc
 249              	.LFE66:
 250              		.size	lcd_print, .-lcd_print
 251              		.global	count
 252              		.section	.rodata.str1.4,"aMS",%progbits,1
 253              		.align	2
 254              	.LC0:
 255 0000 466F726D 		.ascii	"Formula Racing\000"
 255      756C6120 
 255      52616369 
 255      6E6700
 256 000f 00       		.space	1
 257              	.LC1:
 258 0010 43686172 		.ascii	"Charging Circuit\000"
 258      67696E67 
 258      20436972 
 258      63756974 
 258      00
 259 0021 000000   		.space	3
 260              	.LC2:
 261 0024 563A2030 		.ascii	"V: 000.0V\000"
 261      30302E30 
 261      5600
 262 002e 0000     		.space	2
 263              	.LC3:
 264 0030 433A2030 		.ascii	"C: 000A   T: 00C\000"
 264      30304120 
 264      2020543A 
 264      20303043 
 264      00
 265 0041 000000   		.space	3
 266              	.LC4:
 267 0044 25303364 		.ascii	"%03d.%01d\000"
ARM GAS  D:\Windows\AppData\Local\Temp\ccl8MM4e.s 			page 7


 267      2E253031 
 267      6400
 268 004e 0000     		.space	2
 269              	.LC5:
 270 0050 25303364 		.ascii	"%03d\000"
 270      00
 271 0055 000000   		.bss
 272              		.align	2
 273              		.type	count, %object
 274              		.size	count, 4
 275              	count:
 276 0000 00000000 		.space	4
 277              		.text
 278              	.Letext0:
 279              		.file 2 "d:\\programming\\cypress\\psoc creator\\4.0\\psoc creator\\import\\gnu\\arm\\4.9.3\\arm-n
 280              		.file 3 "d:\\programming\\cypress\\psoc creator\\4.0\\psoc creator\\import\\gnu\\arm\\4.9.3\\arm-n
 281              		.file 4 "Generated_Source\\PSoC5/cytypes.h"
 282              		.file 5 "Generated_Source\\PSoC5/core_cm3.h"
 283              		.file 6 "Generated_Source\\PSoC5/LCD.h"
 284              		.file 7 "Generated_Source\\PSoC5/CyLib.h"
 285              		.file 8 "d:\\programming\\cypress\\psoc creator\\4.0\\psoc creator\\import\\gnu\\arm\\4.9.3\\arm-n