ARM GAS  D:\Windows\AppData\Local\Temp\cc47YX0v.s 			page 1


   1              		.syntax unified
   2              		.cpu cortex-m3
   3              		.fpu softvfp
   4              		.eabi_attribute 20, 1
   5              		.eabi_attribute 21, 1
   6              		.eabi_attribute 23, 3
   7              		.eabi_attribute 24, 1
   8              		.eabi_attribute 25, 1
   9              		.eabi_attribute 26, 1
  10              		.eabi_attribute 30, 1
  11              		.eabi_attribute 34, 1
  12              		.eabi_attribute 18, 4
  13              		.thumb
  14              		.file	"main.c"
  15              		.text
  16              	.Ltext0:
  17              		.cfi_sections	.debug_frame
  18              		.section	.text.main,"ax",%progbits
  19              		.align	2
  20              		.global	main
  21              		.thumb
  22              		.thumb_func
  23              		.type	main, %function
  24              	main:
  25              	.LFB63:
  26              		.file 1 "main.c"
   1:main.c        **** /* Node-Rhinoceros
   2:main.c        **** 	 Charger board FRUCD
   3:main.c        **** 	Simply prints BMS statuses to LCD
   4:main.c        ****  */
   5:main.c        **** 
   6:main.c        **** #include <project.h>
   7:main.c        **** #include "data.h"
   8:main.c        **** #include "can_manager.h"
   9:main.c        **** #include "lcd_manager.h"
  10:main.c        **** 
  11:main.c        **** 
  12:main.c        **** int main(void) {
  27              		.loc 1 12 0
  28              		.cfi_startproc
  29              		@ args = 0, pretend = 0, frame = 0
  30              		@ frame_needed = 0, uses_anonymous_args = 0
  31 0000 10B5     		push	{r4, lr}
  32              		.cfi_def_cfa_offset 8
  33              		.cfi_offset 4, -8
  34              		.cfi_offset 14, -4
  13:main.c        **** 	CYGlobalIntEnable;      //Uncomment this line to enable global interrupts 
  35              		.loc 1 13 0
  36              	@ 13 "main.c" 1
  37 0002 62B6     		CPSIE   i
  38              	@ 0 "" 2
  14:main.c        **** 
  15:main.c        **** 	uint8_t atomic_state = CyEnterCriticalSection(); // BEGIN ATOMIC
  39              		.loc 1 15 0
  40              		.thumb
  41 0004 FFF7FEFF 		bl	CyEnterCriticalSection
  42              	.LVL0:
ARM GAS  D:\Windows\AppData\Local\Temp\cc47YX0v.s 			page 2


  43 0008 0446     		mov	r4, r0
  44              	.LVL1:
  16:main.c        **** 	can_init();
  45              		.loc 1 16 0
  46 000a FFF7FEFF 		bl	can_init
  47              	.LVL2:
  17:main.c        **** 	lcd_init();
  48              		.loc 1 17 0
  49 000e FFF7FEFF 		bl	lcd_init
  50              	.LVL3:
  18:main.c        ****     lcd_print_bms();
  51              		.loc 1 18 0
  52 0012 FFF7FEFF 		bl	lcd_print_bms
  53              	.LVL4:
  19:main.c        **** 	CyDelay(10);				//give some time to finish setup
  54              		.loc 1 19 0
  55 0016 0A20     		movs	r0, #10
  56 0018 FFF7FEFF 		bl	CyDelay
  57              	.LVL5:
  20:main.c        **** 	CyExitCriticalSection(atomic_state);               // END ATOMIC
  58              		.loc 1 20 0
  59 001c 2046     		mov	r0, r4
  60 001e FFF7FEFF 		bl	CyExitCriticalSection
  61              	.LVL6:
  62              	.L2:
  21:main.c        **** 	
  22:main.c        **** 	
  23:main.c        **** 	//CyDelay(3000);
  24:main.c        **** 	
  25:main.c        **** 	for(;;)	{
  26:main.c        **** 	    //can_test_send();
  27:main.c        **** 		//can_test_receive();
  28:main.c        **** 		//lcd_test_print();
  29:main.c        **** 		//can_process_BMS_VOLT();
  30:main.c        **** 		//can_process_BMS_TEMP();
  31:main.c        **** 		//can_process_BMS_CURR();
  32:main.c        **** 		//CyDelay(1000);
  33:main.c        **** 	} // main loop
  63              		.loc 1 33 0 discriminator 1
  64 0022 FEE7     		b	.L2
  65              		.cfi_endproc
  66              	.LFE63:
  67              		.size	main, .-main
  68              		.section	.text.msg_recieve,"ax",%progbits
  69              		.align	2
  70              		.global	msg_recieve
  71              		.thumb
  72              		.thumb_func
  73              		.type	msg_recieve, %function
  74              	msg_recieve:
  75              	.LFB64:
  34:main.c        **** 
  35:main.c        **** 	return 0;
  36:main.c        **** } // main()
  37:main.c        **** 
  38:main.c        **** void msg_recieve(DataPacket * msg) {
  76              		.loc 1 38 0
ARM GAS  D:\Windows\AppData\Local\Temp\cc47YX0v.s 			page 3


  77              		.cfi_startproc
  78              		@ args = 0, pretend = 0, frame = 0
  79              		@ frame_needed = 0, uses_anonymous_args = 0
  80              	.LVL7:
  81 0000 08B5     		push	{r3, lr}
  82              		.cfi_def_cfa_offset 8
  83              		.cfi_offset 3, -8
  84              		.cfi_offset 14, -4
  39:main.c        **** 	can_process(msg);
  85              		.loc 1 39 0
  86 0002 FFF7FEFF 		bl	can_process
  87              	.LVL8:
  88 0006 08BD     		pop	{r3, pc}
  89              		.cfi_endproc
  90              	.LFE64:
  91              		.size	msg_recieve, .-msg_recieve
  92              		.text
  93              	.Letext0:
  94              		.file 2 "d:\\programming\\cypress\\psoc creator\\4.0\\psoc creator\\import\\gnu\\arm\\4.9.3\\arm-n
  95              		.file 3 "d:\\programming\\cypress\\psoc creator\\4.0\\psoc creator\\import\\gnu\\arm\\4.9.3\\arm-n
  96              		.file 4 "Generated_Source\\PSoC5/cytypes.h"
  97              		.file 5 "data.h"
  98              		.file 6 "can_manager.h"
  99              		.file 7 "lcd_manager.h"
 100              		.file 8 "Generated_Source\\PSoC5/CyLib.h"
 101              		.file 9 "Generated_Source\\PSoC5/core_cm3.h"