ARM GAS  C:\Users\Schuyler\AppData\Local\Temp\ccYsJAzW.s 			page 1


   1              		.syntax unified
   2              		.cpu cortex-m3
   3              		.fpu softvfp
   4              		.eabi_attribute 20, 1
   5              		.eabi_attribute 21, 1
   6              		.eabi_attribute 23, 3
   7              		.eabi_attribute 24, 1
   8              		.eabi_attribute 25, 1
   9              		.eabi_attribute 26, 1
  10              		.eabi_attribute 30, 1
  11              		.eabi_attribute 34, 1
  12              		.eabi_attribute 18, 4
  13              		.thumb
  14              		.syntax unified
  15              		.file	"CAN_TX_RX_func.c"
  16              		.text
  17              	.Ltext0:
  18              		.cfi_sections	.debug_frame
  19              		.section	.text.CAN_SendMsg,"ax",%progbits
  20              		.align	2
  21              		.global	CAN_SendMsg
  22              		.thumb
  23              		.thumb_func
  24              		.type	CAN_SendMsg, %function
  25              	CAN_SendMsg:
  26              	.LFB63:
  27              		.file 1 "Generated_Source\\PSoC5\\CAN_TX_RX_func.c"
   1:Generated_Source\PSoC5/CAN_TX_RX_func.c **** /*******************************************************************************
   2:Generated_Source\PSoC5/CAN_TX_RX_func.c **** * File Name: CAN_TX_RX_func.c
   3:Generated_Source\PSoC5/CAN_TX_RX_func.c **** * Version 3.0
   4:Generated_Source\PSoC5/CAN_TX_RX_func.c **** *
   5:Generated_Source\PSoC5/CAN_TX_RX_func.c **** * Description:
   6:Generated_Source\PSoC5/CAN_TX_RX_func.c **** *  There are functions process "Full" Receive and Transmit mailboxes:
   7:Generated_Source\PSoC5/CAN_TX_RX_func.c **** *     - CAN_SendMsg0-7();
   8:Generated_Source\PSoC5/CAN_TX_RX_func.c **** *     - CAN_ReceiveMsg0-15();
   9:Generated_Source\PSoC5/CAN_TX_RX_func.c **** *  Transmission of message, and receive routine for "Basic" mailboxes:
  10:Generated_Source\PSoC5/CAN_TX_RX_func.c **** *     - CAN_SendMsg();
  11:Generated_Source\PSoC5/CAN_TX_RX_func.c **** *     - CAN_TxCancel();
  12:Generated_Source\PSoC5/CAN_TX_RX_func.c **** *     - CAN_ReceiveMsg();
  13:Generated_Source\PSoC5/CAN_TX_RX_func.c **** *
  14:Generated_Source\PSoC5/CAN_TX_RX_func.c **** *  Note:
  15:Generated_Source\PSoC5/CAN_TX_RX_func.c **** *   None
  16:Generated_Source\PSoC5/CAN_TX_RX_func.c **** *
  17:Generated_Source\PSoC5/CAN_TX_RX_func.c **** ********************************************************************************
  18:Generated_Source\PSoC5/CAN_TX_RX_func.c **** * Copyright 2008-2015, Cypress Semiconductor Corporation.  All rights reserved.
  19:Generated_Source\PSoC5/CAN_TX_RX_func.c **** * You may use this file only in accordance with the license, terms, conditions,
  20:Generated_Source\PSoC5/CAN_TX_RX_func.c **** * disclaimers, and limitations in the end user license agreement accompanying
  21:Generated_Source\PSoC5/CAN_TX_RX_func.c **** * the software package with which this file was provided.
  22:Generated_Source\PSoC5/CAN_TX_RX_func.c **** *******************************************************************************/
  23:Generated_Source\PSoC5/CAN_TX_RX_func.c **** 
  24:Generated_Source\PSoC5/CAN_TX_RX_func.c **** #include "CAN.h"
  25:Generated_Source\PSoC5/CAN_TX_RX_func.c **** #include "cyapicallbacks.h"
  26:Generated_Source\PSoC5/CAN_TX_RX_func.c **** 
  27:Generated_Source\PSoC5/CAN_TX_RX_func.c **** /* `#START TX_RX_FUNCTION` */
  28:Generated_Source\PSoC5/CAN_TX_RX_func.c **** #include "data.h"
  29:Generated_Source\PSoC5/CAN_TX_RX_func.c **** #include "can_manager.h"
  30:Generated_Source\PSoC5/CAN_TX_RX_func.c **** /* `#END` */
ARM GAS  C:\Users\Schuyler\AppData\Local\Temp\ccYsJAzW.s 			page 2


  31:Generated_Source\PSoC5/CAN_TX_RX_func.c **** 
  32:Generated_Source\PSoC5/CAN_TX_RX_func.c **** 
  33:Generated_Source\PSoC5/CAN_TX_RX_func.c **** /*******************************************************************************
  34:Generated_Source\PSoC5/CAN_TX_RX_func.c **** * FUNCTION NAME:   CAN_SendMsg
  35:Generated_Source\PSoC5/CAN_TX_RX_func.c **** ********************************************************************************
  36:Generated_Source\PSoC5/CAN_TX_RX_func.c **** *
  37:Generated_Source\PSoC5/CAN_TX_RX_func.c **** * Summary:
  38:Generated_Source\PSoC5/CAN_TX_RX_func.c **** *  This function is Send Message from one of Basic mailboxes. The function loops
  39:Generated_Source\PSoC5/CAN_TX_RX_func.c **** *  through the transmit message buffer designed as Basic CAN mailboxes for the
  40:Generated_Source\PSoC5/CAN_TX_RX_func.c **** *  first free available and sends from it. The number of retries is limited.
  41:Generated_Source\PSoC5/CAN_TX_RX_func.c **** *
  42:Generated_Source\PSoC5/CAN_TX_RX_func.c **** * Parameters:
  43:Generated_Source\PSoC5/CAN_TX_RX_func.c **** *  message: The pointer to a structure that contains all required data to send
  44:Generated_Source\PSoC5/CAN_TX_RX_func.c **** *           messages.
  45:Generated_Source\PSoC5/CAN_TX_RX_func.c **** *
  46:Generated_Source\PSoC5/CAN_TX_RX_func.c **** * Return:
  47:Generated_Source\PSoC5/CAN_TX_RX_func.c **** *  Indication if message has been sent.
  48:Generated_Source\PSoC5/CAN_TX_RX_func.c **** *   Define                             Description
  49:Generated_Source\PSoC5/CAN_TX_RX_func.c **** *    CYRET_SUCCESS                      The function passed successfully
  50:Generated_Source\PSoC5/CAN_TX_RX_func.c **** *    CAN_FAIL              The function failed
  51:Generated_Source\PSoC5/CAN_TX_RX_func.c **** *
  52:Generated_Source\PSoC5/CAN_TX_RX_func.c **** *******************************************************************************/
  53:Generated_Source\PSoC5/CAN_TX_RX_func.c **** uint8 CAN_SendMsg(const CAN_TX_MSG *message) 
  54:Generated_Source\PSoC5/CAN_TX_RX_func.c **** {
  28              		.loc 1 54 0
  29              		.cfi_startproc
  30              		@ args = 0, pretend = 0, frame = 0
  31              		@ frame_needed = 0, uses_anonymous_args = 0
  32              	.LVL0:
  33 0000 F0B5     		push	{r4, r5, r6, r7, lr}
  34              		.cfi_def_cfa_offset 20
  35              		.cfi_offset 4, -20
  36              		.cfi_offset 5, -16
  37              		.cfi_offset 6, -12
  38              		.cfi_offset 7, -8
  39              		.cfi_offset 14, -4
  40              	.LVL1:
  55:Generated_Source\PSoC5/CAN_TX_RX_func.c ****     uint8 i, j, shift;
  56:Generated_Source\PSoC5/CAN_TX_RX_func.c ****     uint8 retry = 0u;
  57:Generated_Source\PSoC5/CAN_TX_RX_func.c ****     uint8 result = CAN_FAIL;
  41              		.loc 1 57 0
  42 0002 0122     		movs	r2, #1
  56:Generated_Source\PSoC5/CAN_TX_RX_func.c ****     uint8 result = CAN_FAIL;
  43              		.loc 1 56 0
  44 0004 0027     		movs	r7, #0
  58:Generated_Source\PSoC5/CAN_TX_RX_func.c ****     uint32 regTemp;
  59:Generated_Source\PSoC5/CAN_TX_RX_func.c **** 
  60:Generated_Source\PSoC5/CAN_TX_RX_func.c ****     while (retry < CAN_RETRY_NUMBER)
  45              		.loc 1 60 0
  46 0006 5AE0     		b	.L2
  47              	.LVL2:
  48              	.L16:
  61:Generated_Source\PSoC5/CAN_TX_RX_func.c ****     {
  62:Generated_Source\PSoC5/CAN_TX_RX_func.c ****         shift = 1u;    /* Start from first mailbox */
  63:Generated_Source\PSoC5/CAN_TX_RX_func.c ****         for (i = 0u; i < CAN_NUMBER_OF_TX_MAILBOXES; i++)
  64:Generated_Source\PSoC5/CAN_TX_RX_func.c ****         {
  65:Generated_Source\PSoC5/CAN_TX_RX_func.c ****             /* Find Basic TX mailboxes */
ARM GAS  C:\Users\Schuyler\AppData\Local\Temp\ccYsJAzW.s 			page 3


  66:Generated_Source\PSoC5/CAN_TX_RX_func.c ****             if ((CAN_TX_MAILBOX_TYPE & shift) == 0u)
  67:Generated_Source\PSoC5/CAN_TX_RX_func.c ****             {
  68:Generated_Source\PSoC5/CAN_TX_RX_func.c ****                 /* Find free mailbox */
  69:Generated_Source\PSoC5/CAN_TX_RX_func.c ****                 #if (CY_PSOC3 || CY_PSOC5)
  70:Generated_Source\PSoC5/CAN_TX_RX_func.c ****                     if ((CAN_BUF_SR_REG.byte[2] & shift) == 0u)
  49              		.loc 1 70 0
  50 0008 2F4B     		ldr	r3, .L22
  51 000a 9B78     		ldrb	r3, [r3, #2]	@ zero_extendqisi2
  52 000c 3342     		tst	r3, r6
  53 000e 49D1     		bne	.L3
  54              	.LVL3:
  71:Generated_Source\PSoC5/CAN_TX_RX_func.c ****                 #else  /* CY_PSOC4 */
  72:Generated_Source\PSoC5/CAN_TX_RX_func.c ****                     if ((CAN_BUF_SR_REG &
  73:Generated_Source\PSoC5/CAN_TX_RX_func.c ****                         (uint32) ((uint32) shift << CAN_TWO_BYTE_OFFSET)) == 0u)
  74:Generated_Source\PSoC5/CAN_TX_RX_func.c ****                 #endif /* CY_PSOC3 || CY_PSOC5 */
  75:Generated_Source\PSoC5/CAN_TX_RX_func.c ****                     {
  76:Generated_Source\PSoC5/CAN_TX_RX_func.c ****                         regTemp = 0u;
  77:Generated_Source\PSoC5/CAN_TX_RX_func.c **** 
  78:Generated_Source\PSoC5/CAN_TX_RX_func.c ****                         /* Set message parameters */
  79:Generated_Source\PSoC5/CAN_TX_RX_func.c ****                         if (message->rtr != CAN_STANDARD_MESSAGE)
  55              		.loc 1 79 0
  56 0010 0379     		ldrb	r3, [r0, #4]	@ zero_extendqisi2
  57 0012 0BB1     		cbz	r3, .L4
  80:Generated_Source\PSoC5/CAN_TX_RX_func.c ****                         {
  81:Generated_Source\PSoC5/CAN_TX_RX_func.c ****                             regTemp = CAN_TX_RTR_MASK;    /* RTR message Enable */
  58              		.loc 1 81 0
  59 0014 4FF40013 		mov	r3, #2097152
  60              	.L4:
  61              	.LVL4:
  82:Generated_Source\PSoC5/CAN_TX_RX_func.c ****                         }
  83:Generated_Source\PSoC5/CAN_TX_RX_func.c **** 
  84:Generated_Source\PSoC5/CAN_TX_RX_func.c ****                         if (message->ide == CAN_STANDARD_MESSAGE)
  62              		.loc 1 84 0
  63 0018 4279     		ldrb	r2, [r0, #5]	@ zero_extendqisi2
  64              	.LVL5:
  65 001a 32B9     		cbnz	r2, .L5
  85:Generated_Source\PSoC5/CAN_TX_RX_func.c ****                         {
  86:Generated_Source\PSoC5/CAN_TX_RX_func.c ****                             CAN_SET_TX_ID_STANDARD_MSG(i, message->id);
  66              		.loc 1 86 0
  67 001c 2B4A     		ldr	r2, .L22+4
  68 001e 02EB0412 		add	r2, r2, r4, lsl #4
  69 0022 0168     		ldr	r1, [r0]
  70 0024 4905     		lsls	r1, r1, #21
  71 0026 5160     		str	r1, [r2, #4]
  72 0028 07E0     		b	.L6
  73              	.L5:
  87:Generated_Source\PSoC5/CAN_TX_RX_func.c ****                         }
  88:Generated_Source\PSoC5/CAN_TX_RX_func.c ****                         else
  89:Generated_Source\PSoC5/CAN_TX_RX_func.c ****                         {
  90:Generated_Source\PSoC5/CAN_TX_RX_func.c ****                             regTemp |= CAN_TX_IDE_MASK;
  74              		.loc 1 90 0
  75 002a 43F48013 		orr	r3, r3, #1048576
  76              	.LVL6:
  91:Generated_Source\PSoC5/CAN_TX_RX_func.c ****                             CAN_SET_TX_ID_EXTENDED_MSG(i, message->id);
  77              		.loc 1 91 0
  78 002e 274A     		ldr	r2, .L22+4
  79 0030 02EB0412 		add	r2, r2, r4, lsl #4
ARM GAS  C:\Users\Schuyler\AppData\Local\Temp\ccYsJAzW.s 			page 4


  80 0034 0168     		ldr	r1, [r0]
  81 0036 C900     		lsls	r1, r1, #3
  82 0038 5160     		str	r1, [r2, #4]
  83              	.L6:
  92:Generated_Source\PSoC5/CAN_TX_RX_func.c ****                         }
  93:Generated_Source\PSoC5/CAN_TX_RX_func.c **** 
  94:Generated_Source\PSoC5/CAN_TX_RX_func.c ****                         if (message->dlc < CAN_TX_DLC_MAX_VALUE)
  84              		.loc 1 94 0
  85 003a 90F806E0 		ldrb	lr, [r0, #6]	@ zero_extendqisi2
  86 003e BEF1070F 		cmp	lr, #7
  87 0042 02D8     		bhi	.L7
  95:Generated_Source\PSoC5/CAN_TX_RX_func.c ****                         {
  96:Generated_Source\PSoC5/CAN_TX_RX_func.c ****                             regTemp |= ((uint32) message->dlc) << CAN_TWO_BYTE_OFFSET;
  88              		.loc 1 96 0
  89 0044 43EA0E4E 		orr	lr, r3, lr, lsl #16
  90              	.LVL7:
  91 0048 01E0     		b	.L8
  92              	.LVL8:
  93              	.L7:
  97:Generated_Source\PSoC5/CAN_TX_RX_func.c ****                         }
  98:Generated_Source\PSoC5/CAN_TX_RX_func.c ****                         else
  99:Generated_Source\PSoC5/CAN_TX_RX_func.c ****                         {
 100:Generated_Source\PSoC5/CAN_TX_RX_func.c ****                             regTemp |= CAN_TX_DLC_UPPER_VALUE;
  94              		.loc 1 100 0
  95 004a 43F4002E 		orr	lr, r3, #524288
  96              	.LVL9:
  97              	.L8:
 101:Generated_Source\PSoC5/CAN_TX_RX_func.c ****                         }
 102:Generated_Source\PSoC5/CAN_TX_RX_func.c **** 
 103:Generated_Source\PSoC5/CAN_TX_RX_func.c ****                         if (message->irq != CAN_TRANSMIT_INT_DISABLE)
  98              		.loc 1 103 0
  99 004e C379     		ldrb	r3, [r0, #7]	@ zero_extendqisi2
 100 0050 0BB1     		cbz	r3, .L9
 104:Generated_Source\PSoC5/CAN_TX_RX_func.c ****                         {
 105:Generated_Source\PSoC5/CAN_TX_RX_func.c ****                             regTemp |= CAN_TX_INT_ENABLE_MASK;    /* Transmit Interrupt Enable */
 101              		.loc 1 105 0
 102 0052 4EF0040E 		orr	lr, lr, #4
 103              	.LVL10:
 104              	.L9:
 106:Generated_Source\PSoC5/CAN_TX_RX_func.c ****                         }
 107:Generated_Source\PSoC5/CAN_TX_RX_func.c **** 
 108:Generated_Source\PSoC5/CAN_TX_RX_func.c ****                         for (j = 0u; (j < message->dlc) && (j < CAN_TX_DLC_MAX_VALUE); j++)
 105              		.loc 1 108 0
 106 0056 0023     		movs	r3, #0
 107 0058 0FE0     		b	.L10
 108              	.LVL11:
 109              	.L14:
 109:Generated_Source\PSoC5/CAN_TX_RX_func.c ****                         {
 110:Generated_Source\PSoC5/CAN_TX_RX_func.c ****                             #if (CY_PSOC3 || CY_PSOC5)
 111:Generated_Source\PSoC5/CAN_TX_RX_func.c ****                                 CAN_TX_DATA_BYTE(i, j) = message->msg->byte[j];
 110              		.loc 1 111 0
 111 005a 1C4A     		ldr	r2, .L22+4
 112 005c 02EB0411 		add	r1, r2, r4, lsl #4
 113 0060 032B     		cmp	r3, #3
 114 0062 02D9     		bls	.L11
 115              		.loc 1 111 0 is_stmt 0 discriminator 1
 116 0064 C3F10B02 		rsb	r2, r3, #11
ARM GAS  C:\Users\Schuyler\AppData\Local\Temp\ccYsJAzW.s 			page 5


 117 0068 01E0     		b	.L12
 118              	.L11:
 119              		.loc 1 111 0 discriminator 2
 120 006a C3F10302 		rsb	r2, r3, #3
 121              	.L12:
 122              		.loc 1 111 0 discriminator 4
 123 006e 8568     		ldr	r5, [r0, #8]
 124 0070 ED5C     		ldrb	r5, [r5, r3]	@ zero_extendqisi2
 125 0072 0A44     		add	r2, r2, r1
 126 0074 1572     		strb	r5, [r2, #8]
 108:Generated_Source\PSoC5/CAN_TX_RX_func.c ****                         {
 127              		.loc 1 108 0 is_stmt 1 discriminator 4
 128 0076 0133     		adds	r3, r3, #1
 129              	.LVL12:
 130 0078 DBB2     		uxtb	r3, r3
 131              	.LVL13:
 132              	.L10:
 108:Generated_Source\PSoC5/CAN_TX_RX_func.c ****                         {
 133              		.loc 1 108 0 is_stmt 0 discriminator 2
 134 007a 8279     		ldrb	r2, [r0, #6]	@ zero_extendqisi2
 135 007c 9342     		cmp	r3, r2
 136 007e 01D2     		bcs	.L13
 108:Generated_Source\PSoC5/CAN_TX_RX_func.c ****                         {
 137              		.loc 1 108 0 discriminator 3
 138 0080 072B     		cmp	r3, #7
 139 0082 EAD9     		bls	.L14
 140              	.L13:
 112:Generated_Source\PSoC5/CAN_TX_RX_func.c ****                             #else /* CY_PSOC4 */
 113:Generated_Source\PSoC5/CAN_TX_RX_func.c ****                                 CAN_TX_DATA_BYTE(i, j, message->msg->byte[j]);
 114:Generated_Source\PSoC5/CAN_TX_RX_func.c ****                             #endif /* CY_PSOC3 || CY_PSOC5 */
 115:Generated_Source\PSoC5/CAN_TX_RX_func.c ****                         }
 116:Generated_Source\PSoC5/CAN_TX_RX_func.c **** 
 117:Generated_Source\PSoC5/CAN_TX_RX_func.c ****                         /* Disable isr */
 118:Generated_Source\PSoC5/CAN_TX_RX_func.c ****     CyIntDisable(CAN_ISR_NUMBER);
 141              		.loc 1 118 0 is_stmt 1
 142 0084 4FF48031 		mov	r1, #65536
 143 0088 114B     		ldr	r3, .L22+8
 144              	.LVL14:
 145 008a 1960     		str	r1, [r3]
 119:Generated_Source\PSoC5/CAN_TX_RX_func.c **** 
 120:Generated_Source\PSoC5/CAN_TX_RX_func.c ****                         /* WPN[23] and WPN[3] set to 1 for write to CAN Control reg */
 121:Generated_Source\PSoC5/CAN_TX_RX_func.c ****                         CY_SET_REG32(CAN_TX_CMD_PTR(i), (regTemp | CAN_TX_WPN_SET));
 146              		.loc 1 121 0
 147 008c 2201     		lsls	r2, r4, #4
 148 008e 0F4D     		ldr	r5, .L22+4
 149 0090 4EF40003 		orr	r3, lr, #8388608
 150 0094 43F00803 		orr	r3, r3, #8
 151 0098 5351     		str	r3, [r2, r5]
 122:Generated_Source\PSoC5/CAN_TX_RX_func.c **** 
 123:Generated_Source\PSoC5/CAN_TX_RX_func.c ****                         #if (CY_PSOC3 || CY_PSOC5)
 124:Generated_Source\PSoC5/CAN_TX_RX_func.c ****                             CY_SET_REG32(CAN_TX_CMD_PTR(i), CAN_SEND_MESSAGE);
 152              		.loc 1 124 0
 153 009a 0123     		movs	r3, #1
 154 009c 5351     		str	r3, [r2, r5]
 125:Generated_Source\PSoC5/CAN_TX_RX_func.c ****                         #else /* CY_PSOC4 */
 126:Generated_Source\PSoC5/CAN_TX_RX_func.c ****                             if (message->sst != CAN_STANDARD_MESSAGE)
 127:Generated_Source\PSoC5/CAN_TX_RX_func.c ****                             {
ARM GAS  C:\Users\Schuyler\AppData\Local\Temp\ccYsJAzW.s 			page 6


 128:Generated_Source\PSoC5/CAN_TX_RX_func.c ****                                 /* Single Shot Transmission */
 129:Generated_Source\PSoC5/CAN_TX_RX_func.c ****                                 CAN_TX_CMD_REG(i) |= CAN_SEND_MESSAGE |
 130:Generated_Source\PSoC5/CAN_TX_RX_func.c ****                                 CAN_TX_ABORT_MASK;
 131:Generated_Source\PSoC5/CAN_TX_RX_func.c ****                             }
 132:Generated_Source\PSoC5/CAN_TX_RX_func.c ****                             else
 133:Generated_Source\PSoC5/CAN_TX_RX_func.c ****                             {
 134:Generated_Source\PSoC5/CAN_TX_RX_func.c ****                                 CAN_TX_CMD_REG(i) |= CAN_SEND_MESSAGE;
 135:Generated_Source\PSoC5/CAN_TX_RX_func.c ****                             }
 136:Generated_Source\PSoC5/CAN_TX_RX_func.c ****                         #endif /* CY_PSOC3 || CY_PSOC5 */
 137:Generated_Source\PSoC5/CAN_TX_RX_func.c **** 
 138:Generated_Source\PSoC5/CAN_TX_RX_func.c ****                         /* Enable isr */
 139:Generated_Source\PSoC5/CAN_TX_RX_func.c ****     CyIntEnable(CAN_ISR_NUMBER);
 155              		.loc 1 139 0
 156 009e 0D4B     		ldr	r3, .L22+12
 157 00a0 1960     		str	r1, [r3]
 158              	.LVL15:
 140:Generated_Source\PSoC5/CAN_TX_RX_func.c **** 
 141:Generated_Source\PSoC5/CAN_TX_RX_func.c ****                         result = CYRET_SUCCESS;
 159              		.loc 1 141 0
 160 00a2 0022     		movs	r2, #0
 161              	.LVL16:
 162              	.L3:
 142:Generated_Source\PSoC5/CAN_TX_RX_func.c ****                     }
 143:Generated_Source\PSoC5/CAN_TX_RX_func.c ****             }
 144:Generated_Source\PSoC5/CAN_TX_RX_func.c ****             shift <<= 1u;
 163              		.loc 1 144 0
 164 00a4 7600     		lsls	r6, r6, #1
 165              	.LVL17:
 166 00a6 F6B2     		uxtb	r6, r6
 167              	.LVL18:
 145:Generated_Source\PSoC5/CAN_TX_RX_func.c ****             if (result == CYRET_SUCCESS)
 168              		.loc 1 145 0
 169 00a8 32B1     		cbz	r2, .L15
  63:Generated_Source\PSoC5/CAN_TX_RX_func.c ****         {
 170              		.loc 1 63 0 discriminator 2
 171 00aa 0134     		adds	r4, r4, #1
 172              	.LVL19:
 173 00ac E4B2     		uxtb	r4, r4
 174              	.LVL20:
 175 00ae 01E0     		b	.L18
 176              	.LVL21:
 177              	.L20:
 178 00b0 0126     		movs	r6, #1
 179 00b2 0024     		movs	r4, #0
 180              	.L18:
 181              	.LVL22:
  63:Generated_Source\PSoC5/CAN_TX_RX_func.c ****         {
 182              		.loc 1 63 0 is_stmt 0 discriminator 1
 183 00b4 072C     		cmp	r4, #7
 184 00b6 A7D9     		bls	.L16
 185              	.L15:
 146:Generated_Source\PSoC5/CAN_TX_RX_func.c ****             {
 147:Generated_Source\PSoC5/CAN_TX_RX_func.c ****                 break;
 148:Generated_Source\PSoC5/CAN_TX_RX_func.c ****             }
 149:Generated_Source\PSoC5/CAN_TX_RX_func.c ****         }
 150:Generated_Source\PSoC5/CAN_TX_RX_func.c ****         if (result == CYRET_SUCCESS)
 186              		.loc 1 150 0 is_stmt 1
ARM GAS  C:\Users\Schuyler\AppData\Local\Temp\ccYsJAzW.s 			page 7


 187 00b8 1AB1     		cbz	r2, .L17
 151:Generated_Source\PSoC5/CAN_TX_RX_func.c ****         {
 152:Generated_Source\PSoC5/CAN_TX_RX_func.c ****             break;
 153:Generated_Source\PSoC5/CAN_TX_RX_func.c ****         }
 154:Generated_Source\PSoC5/CAN_TX_RX_func.c ****         else
 155:Generated_Source\PSoC5/CAN_TX_RX_func.c ****         {
 156:Generated_Source\PSoC5/CAN_TX_RX_func.c ****             retry++;
 188              		.loc 1 156 0
 189 00ba 0137     		adds	r7, r7, #1
 190              	.LVL23:
 191 00bc FFB2     		uxtb	r7, r7
 192              	.LVL24:
 193              	.L2:
  60:Generated_Source\PSoC5/CAN_TX_RX_func.c ****     {
 194              		.loc 1 60 0
 195 00be 022F     		cmp	r7, #2
 196 00c0 F6D9     		bls	.L20
 197              	.L17:
 157:Generated_Source\PSoC5/CAN_TX_RX_func.c ****         }
 158:Generated_Source\PSoC5/CAN_TX_RX_func.c ****     }
 159:Generated_Source\PSoC5/CAN_TX_RX_func.c **** 
 160:Generated_Source\PSoC5/CAN_TX_RX_func.c ****     return (result);
 161:Generated_Source\PSoC5/CAN_TX_RX_func.c **** }
 198              		.loc 1 161 0
 199 00c2 1046     		mov	r0, r2
 200              	.LVL25:
 201 00c4 F0BD     		pop	{r4, r5, r6, r7, pc}
 202              	.LVL26:
 203              	.L23:
 204 00c6 00BF     		.align	2
 205              	.L22:
 206 00c8 08A00040 		.word	1073782792
 207 00cc 20A00040 		.word	1073782816
 208 00d0 80E100E0 		.word	-536813184
 209 00d4 00E100E0 		.word	-536813312
 210              		.cfi_endproc
 211              	.LFE63:
 212              		.size	CAN_SendMsg, .-CAN_SendMsg
 213              		.section	.text.CAN_TxCancel,"ax",%progbits
 214              		.align	2
 215              		.global	CAN_TxCancel
 216              		.thumb
 217              		.thumb_func
 218              		.type	CAN_TxCancel, %function
 219              	CAN_TxCancel:
 220              	.LFB64:
 162:Generated_Source\PSoC5/CAN_TX_RX_func.c **** 
 163:Generated_Source\PSoC5/CAN_TX_RX_func.c **** 
 164:Generated_Source\PSoC5/CAN_TX_RX_func.c **** /*******************************************************************************
 165:Generated_Source\PSoC5/CAN_TX_RX_func.c **** * FUNCTION NAME:   CAN_TxCancel
 166:Generated_Source\PSoC5/CAN_TX_RX_func.c **** ********************************************************************************
 167:Generated_Source\PSoC5/CAN_TX_RX_func.c **** *
 168:Generated_Source\PSoC5/CAN_TX_RX_func.c **** * Summary:
 169:Generated_Source\PSoC5/CAN_TX_RX_func.c **** *  This function cancels transmission of a message that has been queued to be
 170:Generated_Source\PSoC5/CAN_TX_RX_func.c **** *  transmitted. Values between 0 and 7 are valid.
 171:Generated_Source\PSoC5/CAN_TX_RX_func.c **** *
 172:Generated_Source\PSoC5/CAN_TX_RX_func.c **** * Parameters:
ARM GAS  C:\Users\Schuyler\AppData\Local\Temp\ccYsJAzW.s 			page 8


 173:Generated_Source\PSoC5/CAN_TX_RX_func.c **** *  bufferId: The mailbox number.
 174:Generated_Source\PSoC5/CAN_TX_RX_func.c **** *
 175:Generated_Source\PSoC5/CAN_TX_RX_func.c **** * Return:
 176:Generated_Source\PSoC5/CAN_TX_RX_func.c **** *  None.
 177:Generated_Source\PSoC5/CAN_TX_RX_func.c **** *
 178:Generated_Source\PSoC5/CAN_TX_RX_func.c **** *******************************************************************************/
 179:Generated_Source\PSoC5/CAN_TX_RX_func.c **** void CAN_TxCancel(uint8 bufferId) 
 180:Generated_Source\PSoC5/CAN_TX_RX_func.c **** {
 221              		.loc 1 180 0
 222              		.cfi_startproc
 223              		@ args = 0, pretend = 0, frame = 0
 224              		@ frame_needed = 0, uses_anonymous_args = 0
 225              		@ link register save eliminated.
 226              	.LVL27:
 181:Generated_Source\PSoC5/CAN_TX_RX_func.c ****     if (bufferId < CAN_NUMBER_OF_TX_MAILBOXES)
 227              		.loc 1 181 0
 228 0000 0728     		cmp	r0, #7
 229 0002 07D8     		bhi	.L24
 182:Generated_Source\PSoC5/CAN_TX_RX_func.c ****     {
 183:Generated_Source\PSoC5/CAN_TX_RX_func.c ****         CAN_TX_ABORT_MESSAGE(bufferId);
 230              		.loc 1 183 0
 231 0004 0001     		lsls	r0, r0, #4
 232              	.LVL28:
 233 0006 044A     		ldr	r2, .L26
 234 0008 835C     		ldrb	r3, [r0, r2]	@ zero_extendqisi2
 235 000a 03F0FC03 		and	r3, r3, #252
 236 000e 43F00203 		orr	r3, r3, #2
 237 0012 8354     		strb	r3, [r0, r2]
 238              	.L24:
 239 0014 7047     		bx	lr
 240              	.L27:
 241 0016 00BF     		.align	2
 242              	.L26:
 243 0018 20A00040 		.word	1073782816
 244              		.cfi_endproc
 245              	.LFE64:
 246              		.size	CAN_TxCancel, .-CAN_TxCancel
 247              		.section	.text.CAN_ReceiveMsg,"ax",%progbits
 248              		.align	2
 249              		.global	CAN_ReceiveMsg
 250              		.thumb
 251              		.thumb_func
 252              		.type	CAN_ReceiveMsg, %function
 253              	CAN_ReceiveMsg:
 254              	.LFB65:
 184:Generated_Source\PSoC5/CAN_TX_RX_func.c ****     }
 185:Generated_Source\PSoC5/CAN_TX_RX_func.c **** }
 186:Generated_Source\PSoC5/CAN_TX_RX_func.c **** 
 187:Generated_Source\PSoC5/CAN_TX_RX_func.c **** 
 188:Generated_Source\PSoC5/CAN_TX_RX_func.c **** #if (CAN_TX0_FUNC_ENABLE)
 189:Generated_Source\PSoC5/CAN_TX_RX_func.c ****     /*******************************************************************************
 190:Generated_Source\PSoC5/CAN_TX_RX_func.c ****     * FUNCTION NAME:   CAN_SendMsg0
 191:Generated_Source\PSoC5/CAN_TX_RX_func.c ****     ********************************************************************************
 192:Generated_Source\PSoC5/CAN_TX_RX_func.c ****     *
 193:Generated_Source\PSoC5/CAN_TX_RX_func.c ****     * Summary:
 194:Generated_Source\PSoC5/CAN_TX_RX_func.c ****     *  This function is the entry point to Transmit Message 0. The function checks
 195:Generated_Source\PSoC5/CAN_TX_RX_func.c ****     *  if mailbox 0 doesn't already have un-transmitted messages waiting for
ARM GAS  C:\Users\Schuyler\AppData\Local\Temp\ccYsJAzW.s 			page 9


 196:Generated_Source\PSoC5/CAN_TX_RX_func.c ****     *  arbitration. If not initiate transmission of the message.
 197:Generated_Source\PSoC5/CAN_TX_RX_func.c ****     *  Generated only for the Transmit mailbox designed as Full.
 198:Generated_Source\PSoC5/CAN_TX_RX_func.c ****     *
 199:Generated_Source\PSoC5/CAN_TX_RX_func.c ****     * Parameters:
 200:Generated_Source\PSoC5/CAN_TX_RX_func.c ****     *  None.
 201:Generated_Source\PSoC5/CAN_TX_RX_func.c ****     *
 202:Generated_Source\PSoC5/CAN_TX_RX_func.c ****     * Return:
 203:Generated_Source\PSoC5/CAN_TX_RX_func.c ****     *  Indication if Message has been sent.
 204:Generated_Source\PSoC5/CAN_TX_RX_func.c ****     *   Define                             Description
 205:Generated_Source\PSoC5/CAN_TX_RX_func.c ****     *    CYRET_SUCCESS                      The function passed successfully
 206:Generated_Source\PSoC5/CAN_TX_RX_func.c ****     *    CAN_FAIL              The function failed
 207:Generated_Source\PSoC5/CAN_TX_RX_func.c ****     *
 208:Generated_Source\PSoC5/CAN_TX_RX_func.c ****     *******************************************************************************/
 209:Generated_Source\PSoC5/CAN_TX_RX_func.c ****     uint8 CAN_SendMsg0(void) 
 210:Generated_Source\PSoC5/CAN_TX_RX_func.c ****     {
 211:Generated_Source\PSoC5/CAN_TX_RX_func.c ****         uint8 result = CYRET_SUCCESS;
 212:Generated_Source\PSoC5/CAN_TX_RX_func.c **** 
 213:Generated_Source\PSoC5/CAN_TX_RX_func.c ****         #if (CY_PSOC3 || CY_PSOC5)
 214:Generated_Source\PSoC5/CAN_TX_RX_func.c ****             if ((CAN_TX[0u].txcmd.byte[0u] & CAN_TX_REQUEST_PENDING) != 0u)
 215:Generated_Source\PSoC5/CAN_TX_RX_func.c ****         #else  /* CY_PSOC4 */
 216:Generated_Source\PSoC5/CAN_TX_RX_func.c ****             if ((CAN_TX_CMD_REG(0u) & CAN_TX_REQUEST_PENDING) != 0u)
 217:Generated_Source\PSoC5/CAN_TX_RX_func.c ****         #endif /* CY_PSOC3 || CY_PSOC5 */
 218:Generated_Source\PSoC5/CAN_TX_RX_func.c ****             {
 219:Generated_Source\PSoC5/CAN_TX_RX_func.c ****                 result = CAN_FAIL;
 220:Generated_Source\PSoC5/CAN_TX_RX_func.c ****             }
 221:Generated_Source\PSoC5/CAN_TX_RX_func.c ****             else
 222:Generated_Source\PSoC5/CAN_TX_RX_func.c ****             {
 223:Generated_Source\PSoC5/CAN_TX_RX_func.c ****                 /* `#START MESSAGE_0_TRASMITTED` */
 224:Generated_Source\PSoC5/CAN_TX_RX_func.c **** 
 225:Generated_Source\PSoC5/CAN_TX_RX_func.c ****                 /* `#END` */
 226:Generated_Source\PSoC5/CAN_TX_RX_func.c **** 
 227:Generated_Source\PSoC5/CAN_TX_RX_func.c ****                 #ifdef CAN_SEND_MSG_0_CALLBACK
 228:Generated_Source\PSoC5/CAN_TX_RX_func.c ****                     CAN_SendMsg_0_Callback();
 229:Generated_Source\PSoC5/CAN_TX_RX_func.c ****                 #endif /* CAN_SEND_MSG_0_CALLBACK */
 230:Generated_Source\PSoC5/CAN_TX_RX_func.c **** 
 231:Generated_Source\PSoC5/CAN_TX_RX_func.c ****                 CY_SET_REG32(CAN_TX_CMD_PTR(0u),
 232:Generated_Source\PSoC5/CAN_TX_RX_func.c ****                 CY_GET_REG32(CAN_TX_CMD_PTR(0u)) | CAN_SEND_MESSAGE);
 233:Generated_Source\PSoC5/CAN_TX_RX_func.c ****             }
 234:Generated_Source\PSoC5/CAN_TX_RX_func.c **** 
 235:Generated_Source\PSoC5/CAN_TX_RX_func.c ****         return (result);
 236:Generated_Source\PSoC5/CAN_TX_RX_func.c ****     }
 237:Generated_Source\PSoC5/CAN_TX_RX_func.c **** #endif /* CAN_TX0_FUNC_ENABLE */
 238:Generated_Source\PSoC5/CAN_TX_RX_func.c **** 
 239:Generated_Source\PSoC5/CAN_TX_RX_func.c **** 
 240:Generated_Source\PSoC5/CAN_TX_RX_func.c **** #if (CAN_TX1_FUNC_ENABLE)
 241:Generated_Source\PSoC5/CAN_TX_RX_func.c ****     /*******************************************************************************
 242:Generated_Source\PSoC5/CAN_TX_RX_func.c ****     * FUNCTION NAME:   CAN_SendMsg1
 243:Generated_Source\PSoC5/CAN_TX_RX_func.c ****     ********************************************************************************
 244:Generated_Source\PSoC5/CAN_TX_RX_func.c ****     *
 245:Generated_Source\PSoC5/CAN_TX_RX_func.c ****     * Summary:
 246:Generated_Source\PSoC5/CAN_TX_RX_func.c ****     *  This function is the entry point to Transmit Message 1. The function checks
 247:Generated_Source\PSoC5/CAN_TX_RX_func.c ****     *  if mailbox 1 doesn't already have un-transmitted messages waiting for
 248:Generated_Source\PSoC5/CAN_TX_RX_func.c ****     *  arbitration. If not initiate transmission of the message.
 249:Generated_Source\PSoC5/CAN_TX_RX_func.c ****     *  Generated only for the Transmit mailbox designed as Full.
 250:Generated_Source\PSoC5/CAN_TX_RX_func.c ****     *
 251:Generated_Source\PSoC5/CAN_TX_RX_func.c ****     * Parameters:
 252:Generated_Source\PSoC5/CAN_TX_RX_func.c ****     *  None.
ARM GAS  C:\Users\Schuyler\AppData\Local\Temp\ccYsJAzW.s 			page 10


 253:Generated_Source\PSoC5/CAN_TX_RX_func.c ****     *
 254:Generated_Source\PSoC5/CAN_TX_RX_func.c ****     * Return:
 255:Generated_Source\PSoC5/CAN_TX_RX_func.c ****     *  Indication if Message has been sent.
 256:Generated_Source\PSoC5/CAN_TX_RX_func.c ****     *   Define                             Description
 257:Generated_Source\PSoC5/CAN_TX_RX_func.c ****     *    CYRET_SUCCESS                      The function passed successfully
 258:Generated_Source\PSoC5/CAN_TX_RX_func.c ****     *    CAN_FAIL              The function failed
 259:Generated_Source\PSoC5/CAN_TX_RX_func.c ****     *
 260:Generated_Source\PSoC5/CAN_TX_RX_func.c ****     *******************************************************************************/
 261:Generated_Source\PSoC5/CAN_TX_RX_func.c ****     uint8 CAN_SendMsg1(void) 
 262:Generated_Source\PSoC5/CAN_TX_RX_func.c ****     {
 263:Generated_Source\PSoC5/CAN_TX_RX_func.c ****         uint8 result = CYRET_SUCCESS;
 264:Generated_Source\PSoC5/CAN_TX_RX_func.c **** 
 265:Generated_Source\PSoC5/CAN_TX_RX_func.c ****         #if (CY_PSOC3 || CY_PSOC5)
 266:Generated_Source\PSoC5/CAN_TX_RX_func.c ****             if ((CAN_TX[1u].txcmd.byte[0u] & CAN_TX_REQUEST_PENDING) != 0u)
 267:Generated_Source\PSoC5/CAN_TX_RX_func.c ****         #else  /* CY_PSOC4 */
 268:Generated_Source\PSoC5/CAN_TX_RX_func.c ****             if ((CAN_TX_CMD_REG(1u) & CAN_TX_REQUEST_PENDING) != 0u)
 269:Generated_Source\PSoC5/CAN_TX_RX_func.c ****         #endif /* CY_PSOC3 || CY_PSOC5 */
 270:Generated_Source\PSoC5/CAN_TX_RX_func.c ****             {
 271:Generated_Source\PSoC5/CAN_TX_RX_func.c ****                 result = CAN_FAIL;
 272:Generated_Source\PSoC5/CAN_TX_RX_func.c ****             }
 273:Generated_Source\PSoC5/CAN_TX_RX_func.c ****             else
 274:Generated_Source\PSoC5/CAN_TX_RX_func.c ****             {
 275:Generated_Source\PSoC5/CAN_TX_RX_func.c ****                 /* `#START MESSAGE_1_TRASMITTED` */
 276:Generated_Source\PSoC5/CAN_TX_RX_func.c **** 
 277:Generated_Source\PSoC5/CAN_TX_RX_func.c ****                 /* `#END` */
 278:Generated_Source\PSoC5/CAN_TX_RX_func.c **** 
 279:Generated_Source\PSoC5/CAN_TX_RX_func.c ****                 #ifdef CAN_SEND_MSG_1_CALLBACK
 280:Generated_Source\PSoC5/CAN_TX_RX_func.c ****                     CAN_SendMsg_1_Callback();
 281:Generated_Source\PSoC5/CAN_TX_RX_func.c ****                 #endif /* CAN_SEND_MSG_1_CALLBACK */
 282:Generated_Source\PSoC5/CAN_TX_RX_func.c **** 
 283:Generated_Source\PSoC5/CAN_TX_RX_func.c ****                 CY_SET_REG32(CAN_TX_CMD_PTR(1u),
 284:Generated_Source\PSoC5/CAN_TX_RX_func.c ****                 CY_GET_REG32(CAN_TX_CMD_PTR(1u)) | CAN_SEND_MESSAGE);
 285:Generated_Source\PSoC5/CAN_TX_RX_func.c ****             }
 286:Generated_Source\PSoC5/CAN_TX_RX_func.c **** 
 287:Generated_Source\PSoC5/CAN_TX_RX_func.c ****         return (result);
 288:Generated_Source\PSoC5/CAN_TX_RX_func.c ****     }
 289:Generated_Source\PSoC5/CAN_TX_RX_func.c **** #endif /* CAN_TX1_FUNC_ENABLE */
 290:Generated_Source\PSoC5/CAN_TX_RX_func.c **** 
 291:Generated_Source\PSoC5/CAN_TX_RX_func.c **** 
 292:Generated_Source\PSoC5/CAN_TX_RX_func.c **** #if (CAN_TX2_FUNC_ENABLE)
 293:Generated_Source\PSoC5/CAN_TX_RX_func.c ****     /*******************************************************************************
 294:Generated_Source\PSoC5/CAN_TX_RX_func.c ****     * FUNCTION NAME:   CAN_SendMsg2
 295:Generated_Source\PSoC5/CAN_TX_RX_func.c ****     ********************************************************************************
 296:Generated_Source\PSoC5/CAN_TX_RX_func.c ****     *
 297:Generated_Source\PSoC5/CAN_TX_RX_func.c ****     * Summary:
 298:Generated_Source\PSoC5/CAN_TX_RX_func.c ****     *  This function is the entry point to Transmit Message 2. The function checks
 299:Generated_Source\PSoC5/CAN_TX_RX_func.c ****     *  if mailbox 2 doesn't already have un-transmitted messages waiting for
 300:Generated_Source\PSoC5/CAN_TX_RX_func.c ****     *  arbitration. If not initiate transmission of the message.
 301:Generated_Source\PSoC5/CAN_TX_RX_func.c ****     *  Generated only for the Transmit mailbox designed as Full.
 302:Generated_Source\PSoC5/CAN_TX_RX_func.c ****     *
 303:Generated_Source\PSoC5/CAN_TX_RX_func.c ****     * Parameters:
 304:Generated_Source\PSoC5/CAN_TX_RX_func.c ****     *  None.
 305:Generated_Source\PSoC5/CAN_TX_RX_func.c ****     *
 306:Generated_Source\PSoC5/CAN_TX_RX_func.c ****     * Return:
 307:Generated_Source\PSoC5/CAN_TX_RX_func.c ****     *  Indication if Message has been sent.
 308:Generated_Source\PSoC5/CAN_TX_RX_func.c ****     *   Define                             Description
 309:Generated_Source\PSoC5/CAN_TX_RX_func.c ****     *    CYRET_SUCCESS                      The function passed successfully
ARM GAS  C:\Users\Schuyler\AppData\Local\Temp\ccYsJAzW.s 			page 11


 310:Generated_Source\PSoC5/CAN_TX_RX_func.c ****     *    CAN_FAIL              The function failed
 311:Generated_Source\PSoC5/CAN_TX_RX_func.c ****     *
 312:Generated_Source\PSoC5/CAN_TX_RX_func.c ****     *******************************************************************************/
 313:Generated_Source\PSoC5/CAN_TX_RX_func.c ****     uint8 CAN_SendMsg2(void) 
 314:Generated_Source\PSoC5/CAN_TX_RX_func.c ****     {
 315:Generated_Source\PSoC5/CAN_TX_RX_func.c ****         uint8 result = CYRET_SUCCESS;
 316:Generated_Source\PSoC5/CAN_TX_RX_func.c **** 
 317:Generated_Source\PSoC5/CAN_TX_RX_func.c ****         #if (CY_PSOC3 || CY_PSOC5)
 318:Generated_Source\PSoC5/CAN_TX_RX_func.c ****             if ((CAN_TX[2u].txcmd.byte[0u] & CAN_TX_REQUEST_PENDING) != 0u)
 319:Generated_Source\PSoC5/CAN_TX_RX_func.c ****         #else  /* CY_PSOC4 */
 320:Generated_Source\PSoC5/CAN_TX_RX_func.c ****             if ((CAN_TX_CMD_REG(2u) & CAN_TX_REQUEST_PENDING) != 0u)
 321:Generated_Source\PSoC5/CAN_TX_RX_func.c ****         #endif /* CY_PSOC3 || CY_PSOC5 */
 322:Generated_Source\PSoC5/CAN_TX_RX_func.c ****             {
 323:Generated_Source\PSoC5/CAN_TX_RX_func.c ****                 result = CAN_FAIL;
 324:Generated_Source\PSoC5/CAN_TX_RX_func.c ****             }
 325:Generated_Source\PSoC5/CAN_TX_RX_func.c ****             else
 326:Generated_Source\PSoC5/CAN_TX_RX_func.c ****             {
 327:Generated_Source\PSoC5/CAN_TX_RX_func.c ****                 /* `#START MESSAGE_2_TRASMITTED` */
 328:Generated_Source\PSoC5/CAN_TX_RX_func.c **** 
 329:Generated_Source\PSoC5/CAN_TX_RX_func.c ****                 /* `#END` */
 330:Generated_Source\PSoC5/CAN_TX_RX_func.c **** 
 331:Generated_Source\PSoC5/CAN_TX_RX_func.c ****                 #ifdef CAN_SEND_MSG_2_CALLBACK
 332:Generated_Source\PSoC5/CAN_TX_RX_func.c ****                     CAN_SendMsg_2_Callback();
 333:Generated_Source\PSoC5/CAN_TX_RX_func.c ****                 #endif /* CAN_SEND_MSG_2_CALLBACK */
 334:Generated_Source\PSoC5/CAN_TX_RX_func.c **** 
 335:Generated_Source\PSoC5/CAN_TX_RX_func.c ****                 CY_SET_REG32(CAN_TX_CMD_PTR(2u),
 336:Generated_Source\PSoC5/CAN_TX_RX_func.c ****                 CY_GET_REG32(CAN_TX_CMD_PTR(2u)) | CAN_SEND_MESSAGE);
 337:Generated_Source\PSoC5/CAN_TX_RX_func.c ****             }
 338:Generated_Source\PSoC5/CAN_TX_RX_func.c **** 
 339:Generated_Source\PSoC5/CAN_TX_RX_func.c ****         return (result);
 340:Generated_Source\PSoC5/CAN_TX_RX_func.c ****     }
 341:Generated_Source\PSoC5/CAN_TX_RX_func.c **** #endif /* CAN_TX2_FUNC_ENABLE */
 342:Generated_Source\PSoC5/CAN_TX_RX_func.c **** 
 343:Generated_Source\PSoC5/CAN_TX_RX_func.c **** 
 344:Generated_Source\PSoC5/CAN_TX_RX_func.c **** #if (CAN_TX3_FUNC_ENABLE)
 345:Generated_Source\PSoC5/CAN_TX_RX_func.c ****     /*******************************************************************************
 346:Generated_Source\PSoC5/CAN_TX_RX_func.c ****     * FUNCTION NAME:   CAN_SendMsg3
 347:Generated_Source\PSoC5/CAN_TX_RX_func.c ****     ********************************************************************************
 348:Generated_Source\PSoC5/CAN_TX_RX_func.c ****     *
 349:Generated_Source\PSoC5/CAN_TX_RX_func.c ****     * Summary:
 350:Generated_Source\PSoC5/CAN_TX_RX_func.c ****     *  This function is the entry point to Transmit Message 3. The function checks
 351:Generated_Source\PSoC5/CAN_TX_RX_func.c ****     *  if mailbox 3 doesn't already have un-transmitted messages waiting for
 352:Generated_Source\PSoC5/CAN_TX_RX_func.c ****     *  arbitration. If not initiate transmission of the message.
 353:Generated_Source\PSoC5/CAN_TX_RX_func.c ****     *  Generated only for the Transmit mailbox designed as Full.
 354:Generated_Source\PSoC5/CAN_TX_RX_func.c ****     *
 355:Generated_Source\PSoC5/CAN_TX_RX_func.c ****     * Parameters:
 356:Generated_Source\PSoC5/CAN_TX_RX_func.c ****     *  None.
 357:Generated_Source\PSoC5/CAN_TX_RX_func.c ****     *
 358:Generated_Source\PSoC5/CAN_TX_RX_func.c ****     * Return:
 359:Generated_Source\PSoC5/CAN_TX_RX_func.c ****     *  Indication if Message has been sent.
 360:Generated_Source\PSoC5/CAN_TX_RX_func.c ****     *   Define                             Description
 361:Generated_Source\PSoC5/CAN_TX_RX_func.c ****     *    CYRET_SUCCESS                      The function passed successfully
 362:Generated_Source\PSoC5/CAN_TX_RX_func.c ****     *    CAN_FAIL              The function failed
 363:Generated_Source\PSoC5/CAN_TX_RX_func.c ****     *
 364:Generated_Source\PSoC5/CAN_TX_RX_func.c ****     *******************************************************************************/
 365:Generated_Source\PSoC5/CAN_TX_RX_func.c ****     uint8 CAN_SendMsg3(void) 
 366:Generated_Source\PSoC5/CAN_TX_RX_func.c ****     {
ARM GAS  C:\Users\Schuyler\AppData\Local\Temp\ccYsJAzW.s 			page 12


 367:Generated_Source\PSoC5/CAN_TX_RX_func.c ****         uint8 result = CYRET_SUCCESS;
 368:Generated_Source\PSoC5/CAN_TX_RX_func.c **** 
 369:Generated_Source\PSoC5/CAN_TX_RX_func.c ****         #if (CY_PSOC3 || CY_PSOC5)
 370:Generated_Source\PSoC5/CAN_TX_RX_func.c ****             if ((CAN_TX[3u].txcmd.byte[0u] & CAN_TX_REQUEST_PENDING) != 0u)
 371:Generated_Source\PSoC5/CAN_TX_RX_func.c ****         #else  /* CY_PSOC4 */
 372:Generated_Source\PSoC5/CAN_TX_RX_func.c ****             if ((CAN_TX_CMD_REG(3u) & CAN_TX_REQUEST_PENDING) != 0u)
 373:Generated_Source\PSoC5/CAN_TX_RX_func.c ****         #endif /* CY_PSOC3 || CY_PSOC5 */
 374:Generated_Source\PSoC5/CAN_TX_RX_func.c ****             {
 375:Generated_Source\PSoC5/CAN_TX_RX_func.c ****                 result = CAN_FAIL;
 376:Generated_Source\PSoC5/CAN_TX_RX_func.c ****             }
 377:Generated_Source\PSoC5/CAN_TX_RX_func.c ****             else
 378:Generated_Source\PSoC5/CAN_TX_RX_func.c ****             {
 379:Generated_Source\PSoC5/CAN_TX_RX_func.c ****                 /* `#START MESSAGE_3_TRASMITTED` */
 380:Generated_Source\PSoC5/CAN_TX_RX_func.c **** 
 381:Generated_Source\PSoC5/CAN_TX_RX_func.c ****                 /* `#END` */
 382:Generated_Source\PSoC5/CAN_TX_RX_func.c **** 
 383:Generated_Source\PSoC5/CAN_TX_RX_func.c ****                 #ifdef CAN_SEND_MSG_3_CALLBACK
 384:Generated_Source\PSoC5/CAN_TX_RX_func.c ****                     CAN_SendMsg_3_Callback();
 385:Generated_Source\PSoC5/CAN_TX_RX_func.c ****                 #endif /* CAN_SEND_MSG_3_CALLBACK */
 386:Generated_Source\PSoC5/CAN_TX_RX_func.c **** 
 387:Generated_Source\PSoC5/CAN_TX_RX_func.c ****                 CY_SET_REG32(CAN_TX_CMD_PTR(3u),
 388:Generated_Source\PSoC5/CAN_TX_RX_func.c ****                 CY_GET_REG32(CAN_TX_CMD_PTR(3u)) | CAN_SEND_MESSAGE);
 389:Generated_Source\PSoC5/CAN_TX_RX_func.c ****             }
 390:Generated_Source\PSoC5/CAN_TX_RX_func.c **** 
 391:Generated_Source\PSoC5/CAN_TX_RX_func.c ****         return (result);
 392:Generated_Source\PSoC5/CAN_TX_RX_func.c ****     }
 393:Generated_Source\PSoC5/CAN_TX_RX_func.c **** #endif /* CAN_TX3_FUNC_ENABLE */
 394:Generated_Source\PSoC5/CAN_TX_RX_func.c **** 
 395:Generated_Source\PSoC5/CAN_TX_RX_func.c **** 
 396:Generated_Source\PSoC5/CAN_TX_RX_func.c **** #if (CAN_TX4_FUNC_ENABLE)
 397:Generated_Source\PSoC5/CAN_TX_RX_func.c ****     /*******************************************************************************
 398:Generated_Source\PSoC5/CAN_TX_RX_func.c ****     * FUNCTION NAME:   CAN_SendMsg4
 399:Generated_Source\PSoC5/CAN_TX_RX_func.c ****     ********************************************************************************
 400:Generated_Source\PSoC5/CAN_TX_RX_func.c ****     *
 401:Generated_Source\PSoC5/CAN_TX_RX_func.c ****     * Summary:
 402:Generated_Source\PSoC5/CAN_TX_RX_func.c ****     *  This function is the entry point to Transmit Message 4. The function checks
 403:Generated_Source\PSoC5/CAN_TX_RX_func.c ****     *  if mailbox 4 doesn't already have un-transmitted messages waiting for
 404:Generated_Source\PSoC5/CAN_TX_RX_func.c ****     *  arbitration. If not initiate transmission of the message.
 405:Generated_Source\PSoC5/CAN_TX_RX_func.c ****     *  Generated only for the Transmit mailbox designed as Full.
 406:Generated_Source\PSoC5/CAN_TX_RX_func.c ****     *
 407:Generated_Source\PSoC5/CAN_TX_RX_func.c ****     * Parameters:
 408:Generated_Source\PSoC5/CAN_TX_RX_func.c ****     *  None.
 409:Generated_Source\PSoC5/CAN_TX_RX_func.c ****     *
 410:Generated_Source\PSoC5/CAN_TX_RX_func.c ****     * Return:
 411:Generated_Source\PSoC5/CAN_TX_RX_func.c ****     *  Indication if Message has been sent.
 412:Generated_Source\PSoC5/CAN_TX_RX_func.c ****     *   Define                             Description
 413:Generated_Source\PSoC5/CAN_TX_RX_func.c ****     *    CYRET_SUCCESS                      The function passed successfully
 414:Generated_Source\PSoC5/CAN_TX_RX_func.c ****     *    CAN_FAIL              The function failed
 415:Generated_Source\PSoC5/CAN_TX_RX_func.c ****     *
 416:Generated_Source\PSoC5/CAN_TX_RX_func.c ****     *******************************************************************************/
 417:Generated_Source\PSoC5/CAN_TX_RX_func.c ****     uint8 CAN_SendMsg4(void) 
 418:Generated_Source\PSoC5/CAN_TX_RX_func.c ****     {
 419:Generated_Source\PSoC5/CAN_TX_RX_func.c ****         uint8 result = CYRET_SUCCESS;
 420:Generated_Source\PSoC5/CAN_TX_RX_func.c **** 
 421:Generated_Source\PSoC5/CAN_TX_RX_func.c ****         #if (CY_PSOC3 || CY_PSOC5)
 422:Generated_Source\PSoC5/CAN_TX_RX_func.c ****             if ((CAN_TX[4u].txcmd.byte[0u] & CAN_TX_REQUEST_PENDING) != 0u)
 423:Generated_Source\PSoC5/CAN_TX_RX_func.c ****         #else  /* CY_PSOC4 */
ARM GAS  C:\Users\Schuyler\AppData\Local\Temp\ccYsJAzW.s 			page 13


 424:Generated_Source\PSoC5/CAN_TX_RX_func.c ****             if ((CAN_TX_CMD_REG(4u) & CAN_TX_REQUEST_PENDING) != 0u)
 425:Generated_Source\PSoC5/CAN_TX_RX_func.c ****         #endif /* CY_PSOC3 || CY_PSOC5 */
 426:Generated_Source\PSoC5/CAN_TX_RX_func.c ****             {
 427:Generated_Source\PSoC5/CAN_TX_RX_func.c ****                 result = CAN_FAIL;
 428:Generated_Source\PSoC5/CAN_TX_RX_func.c ****             }
 429:Generated_Source\PSoC5/CAN_TX_RX_func.c ****             else
 430:Generated_Source\PSoC5/CAN_TX_RX_func.c ****             {
 431:Generated_Source\PSoC5/CAN_TX_RX_func.c ****                 /* `#START MESSAGE_4_TRASMITTED` */
 432:Generated_Source\PSoC5/CAN_TX_RX_func.c **** 
 433:Generated_Source\PSoC5/CAN_TX_RX_func.c ****                 /* `#END` */
 434:Generated_Source\PSoC5/CAN_TX_RX_func.c **** 
 435:Generated_Source\PSoC5/CAN_TX_RX_func.c ****                 #ifdef CAN_SEND_MSG_4_CALLBACK
 436:Generated_Source\PSoC5/CAN_TX_RX_func.c ****                     CAN_SendMsg_4_Callback();
 437:Generated_Source\PSoC5/CAN_TX_RX_func.c ****                 #endif /* CAN_SEND_MSG_4_CALLBACK */
 438:Generated_Source\PSoC5/CAN_TX_RX_func.c **** 
 439:Generated_Source\PSoC5/CAN_TX_RX_func.c ****                 CY_SET_REG32(CAN_TX_CMD_PTR(4u),
 440:Generated_Source\PSoC5/CAN_TX_RX_func.c ****                 CY_GET_REG32(CAN_TX_CMD_PTR(4u)) | CAN_SEND_MESSAGE);
 441:Generated_Source\PSoC5/CAN_TX_RX_func.c ****             }
 442:Generated_Source\PSoC5/CAN_TX_RX_func.c **** 
 443:Generated_Source\PSoC5/CAN_TX_RX_func.c ****         return (result);
 444:Generated_Source\PSoC5/CAN_TX_RX_func.c ****     }
 445:Generated_Source\PSoC5/CAN_TX_RX_func.c **** #endif /* CAN_TX4_FUNC_ENABLE */
 446:Generated_Source\PSoC5/CAN_TX_RX_func.c **** 
 447:Generated_Source\PSoC5/CAN_TX_RX_func.c **** 
 448:Generated_Source\PSoC5/CAN_TX_RX_func.c **** #if (CAN_TX5_FUNC_ENABLE)
 449:Generated_Source\PSoC5/CAN_TX_RX_func.c ****     /*******************************************************************************
 450:Generated_Source\PSoC5/CAN_TX_RX_func.c ****     * FUNCTION NAME:   CAN_SendMsg5
 451:Generated_Source\PSoC5/CAN_TX_RX_func.c ****     ********************************************************************************
 452:Generated_Source\PSoC5/CAN_TX_RX_func.c ****     *
 453:Generated_Source\PSoC5/CAN_TX_RX_func.c ****     * Summary:
 454:Generated_Source\PSoC5/CAN_TX_RX_func.c ****     *  This function is the entry point to Transmit Message 5. The function checks
 455:Generated_Source\PSoC5/CAN_TX_RX_func.c ****     *  if mailbox 5 doesn't already have un-transmitted messages waiting for
 456:Generated_Source\PSoC5/CAN_TX_RX_func.c ****     *  arbitration. If not initiate transmission of the message.
 457:Generated_Source\PSoC5/CAN_TX_RX_func.c ****     *  Generated only for the Transmit mailbox designed as Full.
 458:Generated_Source\PSoC5/CAN_TX_RX_func.c ****     *
 459:Generated_Source\PSoC5/CAN_TX_RX_func.c ****     * Parameters:
 460:Generated_Source\PSoC5/CAN_TX_RX_func.c ****     *  None.
 461:Generated_Source\PSoC5/CAN_TX_RX_func.c ****     *
 462:Generated_Source\PSoC5/CAN_TX_RX_func.c ****     * Return:
 463:Generated_Source\PSoC5/CAN_TX_RX_func.c ****     *  Indication if Message has been sent.
 464:Generated_Source\PSoC5/CAN_TX_RX_func.c ****     *   Define                             Description
 465:Generated_Source\PSoC5/CAN_TX_RX_func.c ****     *    CYRET_SUCCESS                      The function passed successfully
 466:Generated_Source\PSoC5/CAN_TX_RX_func.c ****     *    CAN_FAIL              The function failed
 467:Generated_Source\PSoC5/CAN_TX_RX_func.c ****     *
 468:Generated_Source\PSoC5/CAN_TX_RX_func.c ****     *******************************************************************************/
 469:Generated_Source\PSoC5/CAN_TX_RX_func.c ****     uint8 CAN_SendMsg5(void) 
 470:Generated_Source\PSoC5/CAN_TX_RX_func.c ****     {
 471:Generated_Source\PSoC5/CAN_TX_RX_func.c ****         uint8 result = CYRET_SUCCESS;
 472:Generated_Source\PSoC5/CAN_TX_RX_func.c **** 
 473:Generated_Source\PSoC5/CAN_TX_RX_func.c ****         #if (CY_PSOC3 || CY_PSOC5)
 474:Generated_Source\PSoC5/CAN_TX_RX_func.c ****             if ((CAN_TX[5u].txcmd.byte[0u] & CAN_TX_REQUEST_PENDING) != 0u)
 475:Generated_Source\PSoC5/CAN_TX_RX_func.c ****         #else  /* CY_PSOC4 */
 476:Generated_Source\PSoC5/CAN_TX_RX_func.c ****             if ((CAN_TX_CMD_REG(5u) & CAN_TX_REQUEST_PENDING) != 0u)
 477:Generated_Source\PSoC5/CAN_TX_RX_func.c ****         #endif /* CY_PSOC3 || CY_PSOC5 */
 478:Generated_Source\PSoC5/CAN_TX_RX_func.c ****             {
 479:Generated_Source\PSoC5/CAN_TX_RX_func.c ****                 result = CAN_FAIL;
 480:Generated_Source\PSoC5/CAN_TX_RX_func.c ****             }
ARM GAS  C:\Users\Schuyler\AppData\Local\Temp\ccYsJAzW.s 			page 14


 481:Generated_Source\PSoC5/CAN_TX_RX_func.c ****             else
 482:Generated_Source\PSoC5/CAN_TX_RX_func.c ****             {
 483:Generated_Source\PSoC5/CAN_TX_RX_func.c ****                 /* `#START MESSAGE_5_TRASMITTED` */
 484:Generated_Source\PSoC5/CAN_TX_RX_func.c **** 
 485:Generated_Source\PSoC5/CAN_TX_RX_func.c ****                 /* `#END` */
 486:Generated_Source\PSoC5/CAN_TX_RX_func.c **** 
 487:Generated_Source\PSoC5/CAN_TX_RX_func.c ****                 #ifdef CAN_SEND_MSG_5_CALLBACK
 488:Generated_Source\PSoC5/CAN_TX_RX_func.c ****                     CAN_SendMsg_5_Callback();
 489:Generated_Source\PSoC5/CAN_TX_RX_func.c ****                 #endif /* CAN_SEND_MSG_5_CALLBACK */
 490:Generated_Source\PSoC5/CAN_TX_RX_func.c **** 
 491:Generated_Source\PSoC5/CAN_TX_RX_func.c ****                 CY_SET_REG32(CAN_TX_CMD_PTR(5u),
 492:Generated_Source\PSoC5/CAN_TX_RX_func.c ****                 CY_GET_REG32(CAN_TX_CMD_PTR(5u)) | CAN_SEND_MESSAGE);
 493:Generated_Source\PSoC5/CAN_TX_RX_func.c ****             }
 494:Generated_Source\PSoC5/CAN_TX_RX_func.c **** 
 495:Generated_Source\PSoC5/CAN_TX_RX_func.c ****         return (result);
 496:Generated_Source\PSoC5/CAN_TX_RX_func.c ****     }
 497:Generated_Source\PSoC5/CAN_TX_RX_func.c **** #endif /* CAN_TX5_FUNC_ENABLE */
 498:Generated_Source\PSoC5/CAN_TX_RX_func.c **** 
 499:Generated_Source\PSoC5/CAN_TX_RX_func.c **** 
 500:Generated_Source\PSoC5/CAN_TX_RX_func.c **** #if (CAN_TX6_FUNC_ENABLE)
 501:Generated_Source\PSoC5/CAN_TX_RX_func.c ****     /*******************************************************************************
 502:Generated_Source\PSoC5/CAN_TX_RX_func.c ****     * FUNCTION NAME:   CAN_SendMsg6
 503:Generated_Source\PSoC5/CAN_TX_RX_func.c ****     ********************************************************************************
 504:Generated_Source\PSoC5/CAN_TX_RX_func.c ****     *
 505:Generated_Source\PSoC5/CAN_TX_RX_func.c ****     * Summary:
 506:Generated_Source\PSoC5/CAN_TX_RX_func.c ****     *  This function is the entry point to Transmit Message 6. The function checks
 507:Generated_Source\PSoC5/CAN_TX_RX_func.c ****     *  if mailbox 6 doesn't already have un-transmitted messages waiting for
 508:Generated_Source\PSoC5/CAN_TX_RX_func.c ****     *  arbitration. If not initiate transmission of the message.
 509:Generated_Source\PSoC5/CAN_TX_RX_func.c ****     *  Generated only for the Transmit mailbox designed as Full.
 510:Generated_Source\PSoC5/CAN_TX_RX_func.c ****     *
 511:Generated_Source\PSoC5/CAN_TX_RX_func.c ****     * Parameters:
 512:Generated_Source\PSoC5/CAN_TX_RX_func.c ****     *  None.
 513:Generated_Source\PSoC5/CAN_TX_RX_func.c ****     *
 514:Generated_Source\PSoC5/CAN_TX_RX_func.c ****     * Return:
 515:Generated_Source\PSoC5/CAN_TX_RX_func.c ****     *  Indication if Message has been sent.
 516:Generated_Source\PSoC5/CAN_TX_RX_func.c ****     *   Define                             Description
 517:Generated_Source\PSoC5/CAN_TX_RX_func.c ****     *    CYRET_SUCCESS                      The function passed successfully
 518:Generated_Source\PSoC5/CAN_TX_RX_func.c ****     *    CAN_FAIL              The function failed
 519:Generated_Source\PSoC5/CAN_TX_RX_func.c ****     *
 520:Generated_Source\PSoC5/CAN_TX_RX_func.c ****     *******************************************************************************/
 521:Generated_Source\PSoC5/CAN_TX_RX_func.c ****     uint8 CAN_SendMsg6(void) 
 522:Generated_Source\PSoC5/CAN_TX_RX_func.c ****     {
 523:Generated_Source\PSoC5/CAN_TX_RX_func.c ****         uint8 result = CYRET_SUCCESS;
 524:Generated_Source\PSoC5/CAN_TX_RX_func.c **** 
 525:Generated_Source\PSoC5/CAN_TX_RX_func.c ****         #if (CY_PSOC3 || CY_PSOC5)
 526:Generated_Source\PSoC5/CAN_TX_RX_func.c ****             if ((CAN_TX[6u].txcmd.byte[0u] & CAN_TX_REQUEST_PENDING) != 0u)
 527:Generated_Source\PSoC5/CAN_TX_RX_func.c ****         #else  /* CY_PSOC4 */
 528:Generated_Source\PSoC5/CAN_TX_RX_func.c ****             if ((CAN_TX_CMD_REG(6u) & CAN_TX_REQUEST_PENDING) != 0u)
 529:Generated_Source\PSoC5/CAN_TX_RX_func.c ****         #endif /* CY_PSOC3 || CY_PSOC5 */
 530:Generated_Source\PSoC5/CAN_TX_RX_func.c ****             {
 531:Generated_Source\PSoC5/CAN_TX_RX_func.c ****                 result = CAN_FAIL;
 532:Generated_Source\PSoC5/CAN_TX_RX_func.c ****             }
 533:Generated_Source\PSoC5/CAN_TX_RX_func.c ****             else
 534:Generated_Source\PSoC5/CAN_TX_RX_func.c ****             {
 535:Generated_Source\PSoC5/CAN_TX_RX_func.c ****                 /* `#START MESSAGE_6_TRASMITTED` */
 536:Generated_Source\PSoC5/CAN_TX_RX_func.c **** 
 537:Generated_Source\PSoC5/CAN_TX_RX_func.c ****                 /* `#END` */
ARM GAS  C:\Users\Schuyler\AppData\Local\Temp\ccYsJAzW.s 			page 15


 538:Generated_Source\PSoC5/CAN_TX_RX_func.c **** 
 539:Generated_Source\PSoC5/CAN_TX_RX_func.c ****                 #ifdef CAN_SEND_MSG_6_CALLBACK
 540:Generated_Source\PSoC5/CAN_TX_RX_func.c ****                     CAN_SendMsg_6_Callback();
 541:Generated_Source\PSoC5/CAN_TX_RX_func.c ****                 #endif /* CAN_SEND_MSG_6_CALLBACK */
 542:Generated_Source\PSoC5/CAN_TX_RX_func.c **** 
 543:Generated_Source\PSoC5/CAN_TX_RX_func.c ****                 CY_SET_REG32(CAN_TX_CMD_PTR(6u),
 544:Generated_Source\PSoC5/CAN_TX_RX_func.c ****                 CY_GET_REG32(CAN_TX_CMD_PTR(6u)) | CAN_SEND_MESSAGE);
 545:Generated_Source\PSoC5/CAN_TX_RX_func.c ****             }
 546:Generated_Source\PSoC5/CAN_TX_RX_func.c **** 
 547:Generated_Source\PSoC5/CAN_TX_RX_func.c ****         return (result);
 548:Generated_Source\PSoC5/CAN_TX_RX_func.c ****     }
 549:Generated_Source\PSoC5/CAN_TX_RX_func.c **** #endif /* CAN_TX6_FUNC_ENABLE */
 550:Generated_Source\PSoC5/CAN_TX_RX_func.c **** 
 551:Generated_Source\PSoC5/CAN_TX_RX_func.c **** 
 552:Generated_Source\PSoC5/CAN_TX_RX_func.c **** #if (CAN_TX7_FUNC_ENABLE)
 553:Generated_Source\PSoC5/CAN_TX_RX_func.c ****     /*******************************************************************************
 554:Generated_Source\PSoC5/CAN_TX_RX_func.c ****     * FUNCTION NAME:   CAN_SendMsg7)
 555:Generated_Source\PSoC5/CAN_TX_RX_func.c ****     ********************************************************************************
 556:Generated_Source\PSoC5/CAN_TX_RX_func.c ****     *
 557:Generated_Source\PSoC5/CAN_TX_RX_func.c ****     * Summary:
 558:Generated_Source\PSoC5/CAN_TX_RX_func.c ****     *  This function is the entry point to Transmit Message 7. The function checks
 559:Generated_Source\PSoC5/CAN_TX_RX_func.c ****     *  if mailbox 7 doesn't already have un-transmitted messages waiting for
 560:Generated_Source\PSoC5/CAN_TX_RX_func.c ****     *  arbitration. If not initiate transmission of the message.
 561:Generated_Source\PSoC5/CAN_TX_RX_func.c ****     *  Generated only for the Transmit mailbox designed as Full.
 562:Generated_Source\PSoC5/CAN_TX_RX_func.c ****     *
 563:Generated_Source\PSoC5/CAN_TX_RX_func.c ****     * Parameters:
 564:Generated_Source\PSoC5/CAN_TX_RX_func.c ****     *  None.
 565:Generated_Source\PSoC5/CAN_TX_RX_func.c ****     *
 566:Generated_Source\PSoC5/CAN_TX_RX_func.c ****     * Return:
 567:Generated_Source\PSoC5/CAN_TX_RX_func.c ****     *  Indication if Message has been sent.
 568:Generated_Source\PSoC5/CAN_TX_RX_func.c ****     *   Define                             Description
 569:Generated_Source\PSoC5/CAN_TX_RX_func.c ****     *    CYRET_SUCCESS                      The function passed successfully
 570:Generated_Source\PSoC5/CAN_TX_RX_func.c ****     *    CAN_FAIL              The function failed
 571:Generated_Source\PSoC5/CAN_TX_RX_func.c ****     *
 572:Generated_Source\PSoC5/CAN_TX_RX_func.c ****     *******************************************************************************/
 573:Generated_Source\PSoC5/CAN_TX_RX_func.c ****     uint8 CAN_SendMsg7(void) 
 574:Generated_Source\PSoC5/CAN_TX_RX_func.c ****     {
 575:Generated_Source\PSoC5/CAN_TX_RX_func.c ****         uint8 result = CYRET_SUCCESS;
 576:Generated_Source\PSoC5/CAN_TX_RX_func.c **** 
 577:Generated_Source\PSoC5/CAN_TX_RX_func.c ****         #if (CY_PSOC3 || CY_PSOC5)
 578:Generated_Source\PSoC5/CAN_TX_RX_func.c ****             if ((CAN_TX[7u].txcmd.byte[0u] & CAN_TX_REQUEST_PENDING) != 0u)
 579:Generated_Source\PSoC5/CAN_TX_RX_func.c ****         #else  /* CY_PSOC4 */
 580:Generated_Source\PSoC5/CAN_TX_RX_func.c ****             if ((CAN_TX_CMD_REG(7u) & CAN_TX_REQUEST_PENDING) != 0u)
 581:Generated_Source\PSoC5/CAN_TX_RX_func.c ****         #endif /* CY_PSOC3 || CY_PSOC5 */
 582:Generated_Source\PSoC5/CAN_TX_RX_func.c ****             {
 583:Generated_Source\PSoC5/CAN_TX_RX_func.c ****                 result = CAN_FAIL;
 584:Generated_Source\PSoC5/CAN_TX_RX_func.c ****             }
 585:Generated_Source\PSoC5/CAN_TX_RX_func.c ****             else
 586:Generated_Source\PSoC5/CAN_TX_RX_func.c ****             {
 587:Generated_Source\PSoC5/CAN_TX_RX_func.c ****                 /* `#START MESSAGE_7_TRASMITTED` */
 588:Generated_Source\PSoC5/CAN_TX_RX_func.c **** 
 589:Generated_Source\PSoC5/CAN_TX_RX_func.c ****                 /* `#END` */
 590:Generated_Source\PSoC5/CAN_TX_RX_func.c **** 
 591:Generated_Source\PSoC5/CAN_TX_RX_func.c ****                 #ifdef CAN_SEND_MSG_7_CALLBACK
 592:Generated_Source\PSoC5/CAN_TX_RX_func.c ****                     CAN_SendMsg_7_Callback();
 593:Generated_Source\PSoC5/CAN_TX_RX_func.c ****                 #endif /* CAN_SEND_MSG_7_CALLBACK */
 594:Generated_Source\PSoC5/CAN_TX_RX_func.c **** 
ARM GAS  C:\Users\Schuyler\AppData\Local\Temp\ccYsJAzW.s 			page 16


 595:Generated_Source\PSoC5/CAN_TX_RX_func.c ****                 CY_SET_REG32(CAN_TX_CMD_PTR(7u),
 596:Generated_Source\PSoC5/CAN_TX_RX_func.c ****                 CY_GET_REG32(CAN_TX_CMD_PTR(7u)) | CAN_SEND_MESSAGE);
 597:Generated_Source\PSoC5/CAN_TX_RX_func.c ****             }
 598:Generated_Source\PSoC5/CAN_TX_RX_func.c **** 
 599:Generated_Source\PSoC5/CAN_TX_RX_func.c ****         return (result);
 600:Generated_Source\PSoC5/CAN_TX_RX_func.c ****     }
 601:Generated_Source\PSoC5/CAN_TX_RX_func.c **** #endif /* CAN_TX7_FUNC_ENABLE */
 602:Generated_Source\PSoC5/CAN_TX_RX_func.c **** 
 603:Generated_Source\PSoC5/CAN_TX_RX_func.c **** 
 604:Generated_Source\PSoC5/CAN_TX_RX_func.c **** /*******************************************************************************
 605:Generated_Source\PSoC5/CAN_TX_RX_func.c **** * FUNCTION NAME:   CAN_ReceiveMsg
 606:Generated_Source\PSoC5/CAN_TX_RX_func.c **** ********************************************************************************
 607:Generated_Source\PSoC5/CAN_TX_RX_func.c **** *
 608:Generated_Source\PSoC5/CAN_TX_RX_func.c **** * Summary:
 609:Generated_Source\PSoC5/CAN_TX_RX_func.c **** *  This function is the entry point to Receive Message Interrupt for Basic
 610:Generated_Source\PSoC5/CAN_TX_RX_func.c **** *  mailboxes. Clears the Receive particular Message interrupt flag. Generated
 611:Generated_Source\PSoC5/CAN_TX_RX_func.c **** *  only if one of the Receive mailboxes is designed as Basic.
 612:Generated_Source\PSoC5/CAN_TX_RX_func.c **** *
 613:Generated_Source\PSoC5/CAN_TX_RX_func.c **** * Parameters:
 614:Generated_Source\PSoC5/CAN_TX_RX_func.c **** *  rxMailbox: The mailbox number that trig Receive Message Interrupt.
 615:Generated_Source\PSoC5/CAN_TX_RX_func.c **** *
 616:Generated_Source\PSoC5/CAN_TX_RX_func.c **** * Return:
 617:Generated_Source\PSoC5/CAN_TX_RX_func.c **** *  None.
 618:Generated_Source\PSoC5/CAN_TX_RX_func.c **** *
 619:Generated_Source\PSoC5/CAN_TX_RX_func.c **** * Reentrant:
 620:Generated_Source\PSoC5/CAN_TX_RX_func.c **** *  Depends on the Customer code.
 621:Generated_Source\PSoC5/CAN_TX_RX_func.c **** *
 622:Generated_Source\PSoC5/CAN_TX_RX_func.c **** *******************************************************************************/
 623:Generated_Source\PSoC5/CAN_TX_RX_func.c **** void CAN_ReceiveMsg(uint8 rxMailbox) 
 624:Generated_Source\PSoC5/CAN_TX_RX_func.c **** {
 255              		.loc 1 624 0
 256              		.cfi_startproc
 257              		@ args = 0, pretend = 0, frame = 16
 258              		@ frame_needed = 0, uses_anonymous_args = 0
 259              	.LVL29:
 260 0000 70B5     		push	{r4, r5, r6, lr}
 261              		.cfi_def_cfa_offset 16
 262              		.cfi_offset 4, -16
 263              		.cfi_offset 5, -12
 264              		.cfi_offset 6, -8
 265              		.cfi_offset 14, -4
 266 0002 84B0     		sub	sp, sp, #16
 267              		.cfi_def_cfa_offset 32
 625:Generated_Source\PSoC5/CAN_TX_RX_func.c ****     #if (CY_PSOC3 || CY_PSOC5)
 626:Generated_Source\PSoC5/CAN_TX_RX_func.c ****         if ((CAN_RX[rxMailbox].rxcmd.byte[0u] & CAN_RX_ACK_MSG) != 0u)
 268              		.loc 1 626 0
 269 0004 4501     		lsls	r5, r0, #5
 270 0006 164C     		ldr	r4, .L35
 271 0008 2E19     		adds	r6, r5, r4
 272 000a 2B5D     		ldrb	r3, [r5, r4]	@ zero_extendqisi2
 273 000c 13F0010F 		tst	r3, #1
 274 0010 23D0     		beq	.L28
 275              	.LBB2:
 627:Generated_Source\PSoC5/CAN_TX_RX_func.c ****     #else  /* CY_PSOC4 */
 628:Generated_Source\PSoC5/CAN_TX_RX_func.c ****         if ((CAN_RX_CMD_REG(rxMailbox) & CAN_RX_ACK_MSG) != 0u)
 629:Generated_Source\PSoC5/CAN_TX_RX_func.c ****     #endif /* CY_PSOC3 || CY_PSOC5 */
 630:Generated_Source\PSoC5/CAN_TX_RX_func.c ****         {
ARM GAS  C:\Users\Schuyler\AppData\Local\Temp\ccYsJAzW.s 			page 17


 631:Generated_Source\PSoC5/CAN_TX_RX_func.c ****             /* `#START MESSAGE_BASIC_RECEIVED` */
 632:Generated_Source\PSoC5/CAN_TX_RX_func.c **** 		uint8_t i;
 633:Generated_Source\PSoC5/CAN_TX_RX_func.c **** 		DataPacket can_msg;
 634:Generated_Source\PSoC5/CAN_TX_RX_func.c ****         can_msg.id = CAN_GET_RX_ID(rxMailbox);
 276              		.loc 1 634 0
 277 0012 B378     		ldrb	r3, [r6, #2]	@ zero_extendqisi2
 278 0014 13F0100F 		tst	r3, #16
 279 0018 03D0     		beq	.L30
 280              		.loc 1 634 0 is_stmt 0 discriminator 1
 281 001a 7368     		ldr	r3, [r6, #4]
 282 001c C3F3CF03 		ubfx	r3, r3, #3, #16
 283 0020 01E0     		b	.L31
 284              	.L30:
 285              		.loc 1 634 0 discriminator 2
 286 0022 7368     		ldr	r3, [r6, #4]
 287 0024 5B0D     		lsrs	r3, r3, #21
 288              	.L31:
 289              		.loc 1 634 0 discriminator 4
 290 0026 ADF80430 		strh	r3, [sp, #4]	@ movhi
 635:Generated_Source\PSoC5/CAN_TX_RX_func.c ****         can_msg.length = CAN_GET_DLC(rxMailbox); //gets length of message, 8 bytes
 291              		.loc 1 635 0 is_stmt 1 discriminator 4
 292 002a B078     		ldrb	r0, [r6, #2]	@ zero_extendqisi2
 293              	.LVL30:
 294 002c 00F00F00 		and	r0, r0, #15
 295 0030 8DF80600 		strb	r0, [sp, #6]
 296              	.LVL31:
 636:Generated_Source\PSoC5/CAN_TX_RX_func.c ****         for (i = 0; i < can_msg.length; i++)
 297              		.loc 1 636 0 discriminator 4
 298 0034 0023     		movs	r3, #0
 299 0036 07E0     		b	.L32
 300              	.LVL32:
 301              	.L33:
 637:Generated_Source\PSoC5/CAN_TX_RX_func.c ****             can_msg.data[i] = CAN_RX[rxMailbox].rxdata.byte[i];
 302              		.loc 1 637 0 discriminator 3
 303 0038 F218     		adds	r2, r6, r3
 304 003a 117A     		ldrb	r1, [r2, #8]	@ zero_extendqisi2
 305 003c 04AA     		add	r2, sp, #16
 306 003e 1A44     		add	r2, r2, r3
 307 0040 02F8091C 		strb	r1, [r2, #-9]
 636:Generated_Source\PSoC5/CAN_TX_RX_func.c ****         for (i = 0; i < can_msg.length; i++)
 308              		.loc 1 636 0 discriminator 3
 309 0044 0133     		adds	r3, r3, #1
 310              	.LVL33:
 311 0046 DBB2     		uxtb	r3, r3
 312              	.LVL34:
 313              	.L32:
 636:Generated_Source\PSoC5/CAN_TX_RX_func.c ****         for (i = 0; i < can_msg.length; i++)
 314              		.loc 1 636 0 is_stmt 0 discriminator 1
 315 0048 8342     		cmp	r3, r0
 316 004a F5D3     		bcc	.L33
 317              	.LVL35:
 638:Generated_Source\PSoC5/CAN_TX_RX_func.c **** 				
 639:Generated_Source\PSoC5/CAN_TX_RX_func.c **** 		DataPacket* can_msg_ptr = &can_msg;	  
 640:Generated_Source\PSoC5/CAN_TX_RX_func.c **** 		can_process(can_msg_ptr);
 318              		.loc 1 640 0 is_stmt 1
 319 004c 6846     		mov	r0, sp
 320 004e FFF7FEFF 		bl	can_process
ARM GAS  C:\Users\Schuyler\AppData\Local\Temp\ccYsJAzW.s 			page 18


 321              	.LVL36:
 641:Generated_Source\PSoC5/CAN_TX_RX_func.c ****             /* `#END` */
 642:Generated_Source\PSoC5/CAN_TX_RX_func.c **** 
 643:Generated_Source\PSoC5/CAN_TX_RX_func.c ****             #ifdef CAN_RECEIVE_MSG_CALLBACK
 644:Generated_Source\PSoC5/CAN_TX_RX_func.c ****                 CAN_ReceiveMsg_Callback();
 645:Generated_Source\PSoC5/CAN_TX_RX_func.c ****             #endif /* CAN_RECEIVE_MSG_CALLBACK */
 646:Generated_Source\PSoC5/CAN_TX_RX_func.c **** 
 647:Generated_Source\PSoC5/CAN_TX_RX_func.c ****             #if (CY_PSOC3 || CY_PSOC5)
 648:Generated_Source\PSoC5/CAN_TX_RX_func.c ****                 CAN_RX[rxMailbox].rxcmd.byte[0u] |= CAN_RX_ACK_MSG;
 322              		.loc 1 648 0
 323 0052 2B5D     		ldrb	r3, [r5, r4]	@ zero_extendqisi2
 324 0054 43F00103 		orr	r3, r3, #1
 325 0058 2B55     		strb	r3, [r5, r4]
 326              	.LVL37:
 327              	.L28:
 328              	.LBE2:
 649:Generated_Source\PSoC5/CAN_TX_RX_func.c ****             #else  /* CY_PSOC4 */
 650:Generated_Source\PSoC5/CAN_TX_RX_func.c ****                 CAN_RX_CMD_REG(rxMailbox) |= CAN_RX_ACK_MSG;
 651:Generated_Source\PSoC5/CAN_TX_RX_func.c ****             #endif /* CY_PSOC3 || CY_PSOC5 */
 652:Generated_Source\PSoC5/CAN_TX_RX_func.c ****         }
 653:Generated_Source\PSoC5/CAN_TX_RX_func.c **** }
 329              		.loc 1 653 0
 330 005a 04B0     		add	sp, sp, #16
 331              		.cfi_def_cfa_offset 16
 332              		@ sp needed
 333 005c 70BD     		pop	{r4, r5, r6, pc}
 334              	.L36:
 335 005e 00BF     		.align	2
 336              	.L35:
 337 0060 A0A00040 		.word	1073782944
 338              		.cfi_endproc
 339              	.LFE65:
 340              		.size	CAN_ReceiveMsg, .-CAN_ReceiveMsg
 341              		.text
 342              	.Letext0:
 343              		.file 2 "c:\\program files (x86)\\cypress\\psoc creator\\4.1\\psoc creator\\import\\gnu\\arm\\5.4.
 344              		.file 3 "c:\\program files (x86)\\cypress\\psoc creator\\4.1\\psoc creator\\import\\gnu\\arm\\5.4.
 345              		.file 4 "Generated_Source\\PSoC5\\cytypes.h"
 346              		.file 5 "Generated_Source\\PSoC5\\CAN.h"
 347              		.file 6 "./data.h"
 348              		.file 7 "Generated_Source\\PSoC5/core_cm3.h"
 349              		.file 8 "./can_manager.h"