ARM GAS  C:\Users\Schuyler\AppData\Local\Temp\ccamabNe.s 			page 1


   1              		.syntax unified
   2              		.cpu cortex-m3
   3              		.fpu softvfp
   4              		.eabi_attribute 20, 1
   5              		.eabi_attribute 21, 1
   6              		.eabi_attribute 23, 3
   7              		.eabi_attribute 24, 1
   8              		.eabi_attribute 25, 1
   9              		.eabi_attribute 26, 1
  10              		.eabi_attribute 30, 1
  11              		.eabi_attribute 34, 1
  12              		.eabi_attribute 18, 4
  13              		.thumb
  14              		.syntax unified
  15              		.file	"can_manager.c"
  16              		.text
  17              	.Ltext0:
  18              		.cfi_sections	.debug_frame
  19              		.section	.text.can_msg_init,"ax",%progbits
  20              		.align	2
  21              		.global	can_msg_init
  22              		.thumb
  23              		.thumb_func
  24              		.type	can_msg_init, %function
  25              	can_msg_init:
  26              	.LFB65:
  27              		.file 1 "can_manager.c"
   1:can_manager.c **** #include "can_manager.h"
   2:can_manager.c **** #include <stdio.h>
   3:can_manager.c **** 
   4:can_manager.c **** #define BMS_STATUS_ID		0x188
   5:can_manager.c **** #define BMS_CURRENT_ID		0x288
   6:can_manager.c **** #define BMS_VOLTAGE_ID		0x388
   7:can_manager.c **** #define BMS_TEMP_ID			0x488
   8:can_manager.c **** 
   9:can_manager.c **** DataPacket BMS_STATUS;		//0x188
  10:can_manager.c **** DataPacket BMS_CURRENT;		//0x288
  11:can_manager.c **** DataPacket BMS_VOLTAGE;		//0x388
  12:can_manager.c **** DataPacket BMS_TEMP;		//0x488
  13:can_manager.c **** 
  14:can_manager.c **** void can_init() {
  15:can_manager.c **** 	CAN_GlobalIntEnable(); // CAN Initialization
  16:can_manager.c **** 	CAN_Init();
  17:can_manager.c **** 	CAN_Start();
  18:can_manager.c **** 	
  19:can_manager.c **** 	can_msg_init(&BMS_STATUS, BMS_STATUS_ID);
  20:can_manager.c **** 	can_msg_init(&BMS_CURRENT, BMS_CURRENT_ID); 
  21:can_manager.c **** 	can_msg_init(&BMS_VOLTAGE, BMS_VOLTAGE_ID);
  22:can_manager.c **** 	can_msg_init(&BMS_TEMP, BMS_TEMP_ID);
  23:can_manager.c **** }
  24:can_manager.c **** 
  25:can_manager.c **** //initalize CAN message variables with FF's everywhere
  26:can_manager.c **** void can_msg_init(DataPacket* can_msg, uint16_t id) {
  28              		.loc 1 26 0
  29              		.cfi_startproc
  30              		@ args = 0, pretend = 0, frame = 0
  31              		@ frame_needed = 0, uses_anonymous_args = 0
ARM GAS  C:\Users\Schuyler\AppData\Local\Temp\ccamabNe.s 			page 2


  32              		@ link register save eliminated.
  33              	.LVL0:
  27:can_manager.c **** 	uint8_t i;
  28:can_manager.c **** 	can_msg->id = id;
  34              		.loc 1 28 0
  35 0000 8180     		strh	r1, [r0, #4]	@ movhi
  29:can_manager.c **** 	can_msg->length = 8;
  36              		.loc 1 29 0
  37 0002 0823     		movs	r3, #8
  38 0004 8371     		strb	r3, [r0, #6]
  30:can_manager.c **** 	can_msg->millicounter = 0;
  39              		.loc 1 30 0
  40 0006 0023     		movs	r3, #0
  41 0008 0360     		str	r3, [r0]
  42              	.LVL1:
  31:can_manager.c **** 	for(i=0; i<can_msg->length; i++) {
  43              		.loc 1 31 0
  44 000a 04E0     		b	.L2
  45              	.LVL2:
  46              	.L3:
  32:can_manager.c **** 		can_msg->data[i] = 0xFF;
  47              		.loc 1 32 0 discriminator 3
  48 000c C218     		adds	r2, r0, r3
  49 000e FF21     		movs	r1, #255
  50 0010 D171     		strb	r1, [r2, #7]
  31:can_manager.c **** 	for(i=0; i<can_msg->length; i++) {
  51              		.loc 1 31 0 discriminator 3
  52 0012 0133     		adds	r3, r3, #1
  53              	.LVL3:
  54 0014 DBB2     		uxtb	r3, r3
  55              	.LVL4:
  56              	.L2:
  31:can_manager.c **** 	for(i=0; i<can_msg->length; i++) {
  57              		.loc 1 31 0 is_stmt 0 discriminator 1
  58 0016 072B     		cmp	r3, #7
  59 0018 F8D9     		bls	.L3
  33:can_manager.c **** 	}
  34:can_manager.c **** 	
  35:can_manager.c **** } //can_msg_init()
  60              		.loc 1 35 0 is_stmt 1
  61 001a 7047     		bx	lr
  62              		.cfi_endproc
  63              	.LFE65:
  64              		.size	can_msg_init, .-can_msg_init
  65              		.section	.text.can_init,"ax",%progbits
  66              		.align	2
  67              		.global	can_init
  68              		.thumb
  69              		.thumb_func
  70              		.type	can_init, %function
  71              	can_init:
  72              	.LFB64:
  14:can_manager.c **** 	CAN_GlobalIntEnable(); // CAN Initialization
  73              		.loc 1 14 0
  74              		.cfi_startproc
  75              		@ args = 0, pretend = 0, frame = 0
  76              		@ frame_needed = 0, uses_anonymous_args = 0
ARM GAS  C:\Users\Schuyler\AppData\Local\Temp\ccamabNe.s 			page 3


  77 0000 08B5     		push	{r3, lr}
  78              		.cfi_def_cfa_offset 8
  79              		.cfi_offset 3, -8
  80              		.cfi_offset 14, -4
  15:can_manager.c **** 	CAN_Init();
  81              		.loc 1 15 0
  82 0002 FFF7FEFF 		bl	CAN_GlobalIntEnable
  83              	.LVL5:
  16:can_manager.c **** 	CAN_Start();
  84              		.loc 1 16 0
  85 0006 FFF7FEFF 		bl	CAN_Init
  86              	.LVL6:
  17:can_manager.c **** 	
  87              		.loc 1 17 0
  88 000a FFF7FEFF 		bl	CAN_Start
  89              	.LVL7:
  19:can_manager.c **** 	can_msg_init(&BMS_CURRENT, BMS_CURRENT_ID); 
  90              		.loc 1 19 0
  91 000e 4FF4C471 		mov	r1, #392
  92 0012 0948     		ldr	r0, .L6
  93 0014 FFF7FEFF 		bl	can_msg_init
  94              	.LVL8:
  20:can_manager.c **** 	can_msg_init(&BMS_VOLTAGE, BMS_VOLTAGE_ID);
  95              		.loc 1 20 0
  96 0018 4FF42271 		mov	r1, #648
  97 001c 0748     		ldr	r0, .L6+4
  98 001e FFF7FEFF 		bl	can_msg_init
  99              	.LVL9:
  21:can_manager.c **** 	can_msg_init(&BMS_TEMP, BMS_TEMP_ID);
 100              		.loc 1 21 0
 101 0022 4FF46271 		mov	r1, #904
 102 0026 0648     		ldr	r0, .L6+8
 103 0028 FFF7FEFF 		bl	can_msg_init
 104              	.LVL10:
  22:can_manager.c **** }
 105              		.loc 1 22 0
 106 002c 4FF49161 		mov	r1, #1160
 107 0030 0448     		ldr	r0, .L6+12
 108 0032 FFF7FEFF 		bl	can_msg_init
 109              	.LVL11:
 110 0036 08BD     		pop	{r3, pc}
 111              	.L7:
 112              		.align	2
 113              	.L6:
 114 0038 00000000 		.word	BMS_STATUS
 115 003c 00000000 		.word	BMS_CURRENT
 116 0040 00000000 		.word	BMS_VOLTAGE
 117 0044 00000000 		.word	BMS_TEMP
 118              		.cfi_endproc
 119              	.LFE64:
 120              		.size	can_init, .-can_init
 121              		.section	.text.can_compare,"ax",%progbits
 122              		.align	2
 123              		.global	can_compare
 124              		.thumb
 125              		.thumb_func
 126              		.type	can_compare, %function
ARM GAS  C:\Users\Schuyler\AppData\Local\Temp\ccamabNe.s 			page 4


 127              	can_compare:
 128              	.LFB67:
  36:can_manager.c **** 
  37:can_manager.c **** 
  38:can_manager.c **** /*  recieves can message from bus can compares it with is respective id*/
  39:can_manager.c **** int can_process(DataPacket* can_msg){
  40:can_manager.c **** 	int status = 0;		//returns 1 if message is updated
  41:can_manager.c ****     switch (can_msg->id) {
  42:can_manager.c **** 	case BMS_STATUS_ID:
  43:can_manager.c **** 		status = can_compare(&BMS_STATUS, can_msg);
  44:can_manager.c **** 		if(status)
  45:can_manager.c ****             can_process_BMS_STATUS();
  46:can_manager.c **** 		break;
  47:can_manager.c **** 	case BMS_CURRENT_ID:	//0x288
  48:can_manager.c **** 		status = can_compare(&BMS_CURRENT, can_msg);
  49:can_manager.c **** 		if(status)
  50:can_manager.c **** 			can_process_BMS_CURR();
  51:can_manager.c **** 		break;
  52:can_manager.c **** 	case BMS_VOLTAGE_ID:	//0x388
  53:can_manager.c **** 		status = can_compare(&BMS_VOLTAGE, can_msg);
  54:can_manager.c **** 		if(status) {
  55:can_manager.c **** 		    #ifdef VOLTAGE_DIFF
  56:can_manager.c ****             can_process_BMS_VOLT_D();
  57:can_manager.c ****             #else
  58:can_manager.c ****             can_process_BMS_VOLT();
  59:can_manager.c ****             #endif
  60:can_manager.c ****         }
  61:can_manager.c **** 		break;
  62:can_manager.c **** 	case BMS_TEMP_ID:		//0x488
  63:can_manager.c **** 		status = can_compare(&BMS_TEMP, can_msg);
  64:can_manager.c **** 		if(status)
  65:can_manager.c **** 			can_process_BMS_TEMP();
  66:can_manager.c **** 		break;
  67:can_manager.c ****     default:
  68:can_manager.c **** 		status = 0;
  69:can_manager.c ****         break;
  70:can_manager.c ****     }
  71:can_manager.c **** 	return status;
  72:can_manager.c **** }
  73:can_manager.c **** 
  74:can_manager.c **** /*	compares received can message with the latest can message of the same id.
  75:can_manager.c **** 	if it is different, it will add update that DataPacket variable	
  76:can_manager.c **** 	returns: 1 if message was updated, 0 if message same as before */
  77:can_manager.c **** int can_compare(DataPacket* prev_msg, DataPacket* new_msg) {
 129              		.loc 1 77 0
 130              		.cfi_startproc
 131              		@ args = 0, pretend = 0, frame = 16
 132              		@ frame_needed = 0, uses_anonymous_args = 0
 133              	.LVL12:
 134 0000 F0B5     		push	{r4, r5, r6, r7, lr}
 135              		.cfi_def_cfa_offset 20
 136              		.cfi_offset 4, -20
 137              		.cfi_offset 5, -16
 138              		.cfi_offset 6, -12
 139              		.cfi_offset 7, -8
 140              		.cfi_offset 14, -4
 141 0002 85B0     		sub	sp, sp, #20
ARM GAS  C:\Users\Schuyler\AppData\Local\Temp\ccamabNe.s 			page 5


 142              		.cfi_def_cfa_offset 40
 143              	.LVL13:
  78:can_manager.c **** 	uint8_t i, j;
  79:can_manager.c **** 	uint8_t offset = 0;
  80:can_manager.c **** 	DataPacket temp;
  81:can_manager.c ****  
  82:can_manager.c **** 	temp.id = new_msg->id;
 144              		.loc 1 82 0
 145 0004 8D88     		ldrh	r5, [r1, #4]
  83:can_manager.c **** 	temp.length = new_msg->length;
 146              		.loc 1 83 0
 147 0006 8C79     		ldrb	r4, [r1, #6]	@ zero_extendqisi2
 148              	.LVL14:
  84:can_manager.c **** 	temp.millicounter = new_msg->millicounter;
  85:can_manager.c **** 	for(i=0; i<temp.length; i++) {
 149              		.loc 1 85 0
 150 0008 0023     		movs	r3, #0
 151 000a 07E0     		b	.L9
 152              	.LVL15:
 153              	.L10:
  86:can_manager.c **** 		temp.data[i] = new_msg->data[i];
 154              		.loc 1 86 0 discriminator 3
 155 000c CA18     		adds	r2, r1, r3
 156 000e D679     		ldrb	r6, [r2, #7]	@ zero_extendqisi2
 157 0010 04AA     		add	r2, sp, #16
 158 0012 1A44     		add	r2, r2, r3
 159 0014 02F8096C 		strb	r6, [r2, #-9]
  85:can_manager.c **** 		temp.data[i] = new_msg->data[i];
 160              		.loc 1 85 0 discriminator 3
 161 0018 0133     		adds	r3, r3, #1
 162              	.LVL16:
 163 001a DBB2     		uxtb	r3, r3
 164              	.LVL17:
 165              	.L9:
  85:can_manager.c **** 		temp.data[i] = new_msg->data[i];
 166              		.loc 1 85 0 is_stmt 0 discriminator 1
 167 001c A342     		cmp	r3, r4
 168 001e F5D3     		bcc	.L10
 169 0020 0022     		movs	r2, #0
 170 0022 09E0     		b	.L11
 171              	.LVL18:
 172              	.L12:
  87:can_manager.c **** 	}
  88:can_manager.c **** 	
  89:can_manager.c **** 	//bytes received in little endian so have to reverse to big endian 32bits
  90:can_manager.c **** 	for(i=0; i<(new_msg->length/2); i++) {		//swap bytes 0-3
  91:can_manager.c **** 		new_msg->data[i+offset] = temp.data[offset + temp.length/2 - i - 1];
 173              		.loc 1 91 0 is_stmt 1 discriminator 3
 174 0024 9B1A     		subs	r3, r3, r2
 175 0026 013B     		subs	r3, r3, #1
 176 0028 04AE     		add	r6, sp, #16
 177 002a 3344     		add	r3, r3, r6
 178 002c 13F8096C 		ldrb	r6, [r3, #-9]	@ zero_extendqisi2
 179 0030 8B18     		adds	r3, r1, r2
 180 0032 DE71     		strb	r6, [r3, #7]
  90:can_manager.c **** 		new_msg->data[i+offset] = temp.data[offset + temp.length/2 - i - 1];
 181              		.loc 1 90 0 discriminator 3
ARM GAS  C:\Users\Schuyler\AppData\Local\Temp\ccamabNe.s 			page 6


 182 0034 0132     		adds	r2, r2, #1
 183              	.LVL19:
 184 0036 D2B2     		uxtb	r2, r2
 185              	.LVL20:
 186              	.L11:
  90:can_manager.c **** 		new_msg->data[i+offset] = temp.data[offset + temp.length/2 - i - 1];
 187              		.loc 1 90 0 is_stmt 0 discriminator 1
 188 0038 6308     		lsrs	r3, r4, #1
 189 003a 9A42     		cmp	r2, r3
 190 003c F2D3     		bcc	.L12
 191 003e 0026     		movs	r6, #0
 192 0040 0DE0     		b	.L13
 193              	.LVL21:
 194              	.L14:
  92:can_manager.c **** 	}//for
  93:can_manager.c **** 	offset = 4;
  94:can_manager.c **** 	for(i=0; i<(new_msg->length/2); i++) {		//swap bytes 4-7
  95:can_manager.c **** 		new_msg->data[i+offset] = temp.data[offset + temp.length/2 - i - 1];
 195              		.loc 1 95 0 is_stmt 1 discriminator 3
 196 0042 371D     		adds	r7, r6, #4
 197 0044 1A1D     		adds	r2, r3, #4
 198 0046 921B     		subs	r2, r2, r6
 199 0048 013A     		subs	r2, r2, #1
 200 004a 0DF1100E 		add	lr, sp, #16
 201 004e 7244     		add	r2, r2, lr
 202 0050 12F809EC 		ldrb	lr, [r2, #-9]	@ zero_extendqisi2
 203 0054 CA19     		adds	r2, r1, r7
 204 0056 82F807E0 		strb	lr, [r2, #7]
  94:can_manager.c **** 		new_msg->data[i+offset] = temp.data[offset + temp.length/2 - i - 1];
 205              		.loc 1 94 0 discriminator 3
 206 005a 0136     		adds	r6, r6, #1
 207              	.LVL22:
 208 005c F6B2     		uxtb	r6, r6
 209              	.LVL23:
 210              	.L13:
  94:can_manager.c **** 		new_msg->data[i+offset] = temp.data[offset + temp.length/2 - i - 1];
 211              		.loc 1 94 0 is_stmt 0 discriminator 1
 212 005e 9E42     		cmp	r6, r3
 213 0060 EFD3     		bcc	.L14
 214 0062 0023     		movs	r3, #0
 215 0064 19E0     		b	.L15
 216              	.LVL24:
 217              	.L20:
  96:can_manager.c **** 	}//for
  97:can_manager.c **** 	
  98:can_manager.c **** 	for(i=0; i<new_msg->length; i++) {					//compare all 8 data bytes
  99:can_manager.c **** 		if(prev_msg->data[i] != new_msg->data[i]) {		//update it if data[] has changed
 218              		.loc 1 99 0 is_stmt 1
 219 0066 C218     		adds	r2, r0, r3
 220 0068 D679     		ldrb	r6, [r2, #7]	@ zero_extendqisi2
 221 006a CA18     		adds	r2, r1, r3
 222 006c D279     		ldrb	r2, [r2, #7]	@ zero_extendqisi2
 223 006e 9642     		cmp	r6, r2
 224 0070 11D0     		beq	.L16
 100:can_manager.c **** 			prev_msg->id = new_msg->id;
 225              		.loc 1 100 0
 226 0072 8580     		strh	r5, [r0, #4]	@ movhi
ARM GAS  C:\Users\Schuyler\AppData\Local\Temp\ccamabNe.s 			page 7


 101:can_manager.c **** 			prev_msg->length = new_msg->length;
 227              		.loc 1 101 0
 228 0074 8B79     		ldrb	r3, [r1, #6]	@ zero_extendqisi2
 229              	.LVL25:
 230 0076 8371     		strb	r3, [r0, #6]
 102:can_manager.c **** 			prev_msg->millicounter = new_msg->millicounter;	
 231              		.loc 1 102 0
 232 0078 0B68     		ldr	r3, [r1]
 233 007a 0360     		str	r3, [r0]
 234              	.LVL26:
 103:can_manager.c **** 			for(j=0; j<new_msg->length; j++) {
 235              		.loc 1 103 0
 236 007c 0023     		movs	r3, #0
 237 007e 05E0     		b	.L17
 238              	.LVL27:
 239              	.L18:
 104:can_manager.c **** 				prev_msg->data[j] = new_msg->data[j];
 240              		.loc 1 104 0 discriminator 3
 241 0080 CA18     		adds	r2, r1, r3
 242 0082 D479     		ldrb	r4, [r2, #7]	@ zero_extendqisi2
 243 0084 C218     		adds	r2, r0, r3
 244 0086 D471     		strb	r4, [r2, #7]
 103:can_manager.c **** 			for(j=0; j<new_msg->length; j++) {
 245              		.loc 1 103 0 discriminator 3
 246 0088 0133     		adds	r3, r3, #1
 247              	.LVL28:
 248 008a DBB2     		uxtb	r3, r3
 249              	.LVL29:
 250              	.L17:
 103:can_manager.c **** 			for(j=0; j<new_msg->length; j++) {
 251              		.loc 1 103 0 is_stmt 0 discriminator 1
 252 008c 8A79     		ldrb	r2, [r1, #6]	@ zero_extendqisi2
 253 008e 9342     		cmp	r3, r2
 254 0090 F6D3     		bcc	.L18
 105:can_manager.c **** 			}
 106:can_manager.c **** 			
 107:can_manager.c **** 			return 1;
 255              		.loc 1 107 0 is_stmt 1
 256 0092 0120     		movs	r0, #1
 257              	.LVL30:
 258 0094 04E0     		b	.L19
 259              	.LVL31:
 260              	.L16:
  98:can_manager.c **** 		if(prev_msg->data[i] != new_msg->data[i]) {		//update it if data[] has changed
 261              		.loc 1 98 0 discriminator 2
 262 0096 0133     		adds	r3, r3, #1
 263              	.LVL32:
 264 0098 DBB2     		uxtb	r3, r3
 265              	.LVL33:
 266              	.L15:
  98:can_manager.c **** 		if(prev_msg->data[i] != new_msg->data[i]) {		//update it if data[] has changed
 267              		.loc 1 98 0 is_stmt 0 discriminator 1
 268 009a A342     		cmp	r3, r4
 269 009c E3D3     		bcc	.L20
 108:can_manager.c **** 		}//if
 109:can_manager.c **** 	}//for
 110:can_manager.c **** 	return 0;
ARM GAS  C:\Users\Schuyler\AppData\Local\Temp\ccamabNe.s 			page 8


 270              		.loc 1 110 0 is_stmt 1
 271 009e 0020     		movs	r0, #0
 272              	.LVL34:
 273              	.L19:
 111:can_manager.c **** }
 274              		.loc 1 111 0
 275 00a0 05B0     		add	sp, sp, #20
 276              		.cfi_def_cfa_offset 20
 277              		@ sp needed
 278 00a2 F0BD     		pop	{r4, r5, r6, r7, pc}
 279              		.cfi_endproc
 280              	.LFE67:
 281              		.size	can_compare, .-can_compare
 282              		.section	.text.can_process_BMS_STATUS,"ax",%progbits
 283              		.align	2
 284              		.global	can_process_BMS_STATUS
 285              		.thumb
 286              		.thumb_func
 287              		.type	can_process_BMS_STATUS, %function
 288              	can_process_BMS_STATUS:
 289              	.LFB68:
 112:can_manager.c **** 
 113:can_manager.c **** 
 114:can_manager.c **** void can_process_BMS_STATUS() {
 290              		.loc 1 114 0
 291              		.cfi_startproc
 292              		@ args = 0, pretend = 0, frame = 8
 293              		@ frame_needed = 0, uses_anonymous_args = 0
 294 0000 00B5     		push	{lr}
 295              		.cfi_def_cfa_offset 4
 296              		.cfi_offset 14, -4
 297 0002 83B0     		sub	sp, sp, #12
 298              		.cfi_def_cfa_offset 16
 115:can_manager.c ****     /*
 116:can_manager.c **** 	uint32_t bms_stat1;
 117:can_manager.c **** 	uint32_t bms_stat2;
 118:can_manager.c **** 	char8 bms_stat1_str[16]; 
 119:can_manager.c **** 	char8 bms_stat2_str[16];
 120:can_manager.c **** 	sprintf(bms_stat1_str, "%02X%02X", can_msg->data[3], can_msg->data[2], can_msg->data[1], can_msg->
 121:can_manager.c **** 	sprintf(bms_stat2_str, "%02X %02X %02X %02X", can_msg->data[7], can_msg->data[6], can_msg->data[5]
 122:can_manager.c **** 	LCD_Position(0,0);
 123:can_manager.c **** 	LCD_PrintString(bms_stat1_str);
 124:can_manager.c **** 	LCD_Position(1,0);
 125:can_manager.c **** 	LCD_PrintString(bms_stat2_str);
 126:can_manager.c ****     */
 127:can_manager.c ****     
 128:can_manager.c **** 	char8 bms_error_str[4];
 129:can_manager.c **** 	sprintf(bms_error_str, "%02X%02X", BMS_STATUS.data[2], BMS_STATUS.data[3]);
 299              		.loc 1 129 0
 300 0004 084A     		ldr	r2, .L24
 301 0006 937A     		ldrb	r3, [r2, #10]	@ zero_extendqisi2
 302 0008 527A     		ldrb	r2, [r2, #9]	@ zero_extendqisi2
 303 000a 0849     		ldr	r1, .L24+4
 304 000c 01A8     		add	r0, sp, #4
 305 000e FFF7FEFF 		bl	sprintf
 306              	.LVL35:
 130:can_manager.c **** 	LCD_Position(0,12);
ARM GAS  C:\Users\Schuyler\AppData\Local\Temp\ccamabNe.s 			page 9


 307              		.loc 1 130 0
 308 0012 0C21     		movs	r1, #12
 309 0014 0020     		movs	r0, #0
 310 0016 FFF7FEFF 		bl	LCD_Position
 311              	.LVL36:
 131:can_manager.c **** 	LCD_PrintString(bms_error_str);
 312              		.loc 1 131 0
 313 001a 01A8     		add	r0, sp, #4
 314 001c FFF7FEFF 		bl	LCD_PrintString
 315              	.LVL37:
 132:can_manager.c **** }
 316              		.loc 1 132 0
 317 0020 03B0     		add	sp, sp, #12
 318              		.cfi_def_cfa_offset 4
 319              		@ sp needed
 320 0022 5DF804FB 		ldr	pc, [sp], #4
 321              	.L25:
 322 0026 00BF     		.align	2
 323              	.L24:
 324 0028 00000000 		.word	BMS_STATUS
 325 002c 00000000 		.word	.LC0
 326              		.cfi_endproc
 327              	.LFE68:
 328              		.size	can_process_BMS_STATUS, .-can_process_BMS_STATUS
 329              		.section	.text.can_process_BMS_CURR,"ax",%progbits
 330              		.align	2
 331              		.global	can_process_BMS_CURR
 332              		.thumb
 333              		.thumb_func
 334              		.type	can_process_BMS_CURR, %function
 335              	can_process_BMS_CURR:
 336              	.LFB69:
 133:can_manager.c **** 	
 134:can_manager.c **** //formats and gets lcd pos
 135:can_manager.c **** void can_process_BMS_CURR() {
 337              		.loc 1 135 0
 338              		.cfi_startproc
 339              		@ args = 0, pretend = 0, frame = 8
 340              		@ frame_needed = 0, uses_anonymous_args = 0
 341 0000 00B5     		push	{lr}
 342              		.cfi_def_cfa_offset 4
 343              		.cfi_offset 14, -4
 344 0002 83B0     		sub	sp, sp, #12
 345              		.cfi_def_cfa_offset 16
 136:can_manager.c **** 	uint16_t current;
 137:can_manager.c **** 	char8 curr_string[6]; 
 138:can_manager.c **** 	
 139:can_manager.c **** 	uint16_t byte2 = BMS_CURRENT.data[1] << 8;
 346              		.loc 1 139 0
 347 0004 0D4A     		ldr	r2, .L28
 348 0006 117A     		ldrb	r1, [r2, #8]	@ zero_extendqisi2
 349              	.LVL38:
 140:can_manager.c **** 	uint16_t byte1 = BMS_CURRENT.data[2];
 350              		.loc 1 140 0
 351 0008 537A     		ldrb	r3, [r2, #9]	@ zero_extendqisi2
 352              	.LVL39:
 141:can_manager.c **** 	current = byte2 | byte1;
ARM GAS  C:\Users\Schuyler\AppData\Local\Temp\ccamabNe.s 			page 10


 353              		.loc 1 141 0
 354 000a 43EA0123 		orr	r3, r3, r1, lsl #8
 355              	.LVL40:
 142:can_manager.c **** 	
 143:can_manager.c ****     
 144:can_manager.c **** 	//current = 0x10; 
 145:can_manager.c ****     //first bit of high byte: 0 = charging, 1 = discharging
 146:can_manager.c **** 	sprintf(curr_string, "%03d.%01dA", (int)(current/10), (int)(current%10)); 
 356              		.loc 1 146 0
 357 000e 0C4A     		ldr	r2, .L28+4
 358              	.LVL41:
 359 0010 A2FB0312 		umull	r1, r2, r2, r3
 360              	.LVL42:
 361 0014 D208     		lsrs	r2, r2, #3
 362 0016 02EB8200 		add	r0, r2, r2, lsl #2
 363 001a 4100     		lsls	r1, r0, #1
 364 001c 5B1A     		subs	r3, r3, r1
 365              	.LVL43:
 366 001e 9BB2     		uxth	r3, r3
 367 0020 0849     		ldr	r1, .L28+8
 368 0022 6846     		mov	r0, sp
 369 0024 FFF7FEFF 		bl	sprintf
 370              	.LVL44:
 147:can_manager.c ****     //sprintf(curr_string, "%02X %02X", BMS_CURRENT.data[1], BMS_CURRENT.data[2]); 
 148:can_manager.c **** 	LCD_Position(1, 3);
 371              		.loc 1 148 0
 372 0028 0321     		movs	r1, #3
 373 002a 0120     		movs	r0, #1
 374 002c FFF7FEFF 		bl	LCD_Position
 375              	.LVL45:
 149:can_manager.c **** 	LCD_PrintString(curr_string);
 376              		.loc 1 149 0
 377 0030 6846     		mov	r0, sp
 378 0032 FFF7FEFF 		bl	LCD_PrintString
 379              	.LVL46:
 150:can_manager.c ****     
 151:can_manager.c ****     
 152:can_manager.c ****     /*
 153:can_manager.c ****     char8 bms_curr1_str[16];
 154:can_manager.c ****     char8 bms_curr2_str[16];
 155:can_manager.c ****     sprintf(bms_curr1_str, "%02X %02X %02X %02X", BMS_CURRENT.data[0], BMS_CURRENT.data[1], BMS_CUR
 156:can_manager.c ****     sprintf(bms_curr2_str, "%02X %02X %02X %02X", BMS_CURRENT.data[4], BMS_CURRENT.data[5], BMS_CUR
 157:can_manager.c ****     LCD_Position(0,0);
 158:can_manager.c ****     LCD_PrintString(bms_curr1_str);
 159:can_manager.c ****     LCD_Position(1,0);
 160:can_manager.c ****     LCD_PrintString(bms_curr2_str);
 161:can_manager.c ****     */
 162:can_manager.c **** }
 380              		.loc 1 162 0
 381 0036 03B0     		add	sp, sp, #12
 382              		.cfi_def_cfa_offset 4
 383              		@ sp needed
 384 0038 5DF804FB 		ldr	pc, [sp], #4
 385              	.L29:
 386              		.align	2
 387              	.L28:
 388 003c 00000000 		.word	BMS_CURRENT
ARM GAS  C:\Users\Schuyler\AppData\Local\Temp\ccamabNe.s 			page 11


 389 0040 CDCCCCCC 		.word	-858993459
 390 0044 0C000000 		.word	.LC1
 391              		.cfi_endproc
 392              	.LFE69:
 393              		.size	can_process_BMS_CURR, .-can_process_BMS_CURR
 394              		.section	.text.can_process_BMS_VOLT,"ax",%progbits
 395              		.align	2
 396              		.global	can_process_BMS_VOLT
 397              		.thumb
 398              		.thumb_func
 399              		.type	can_process_BMS_VOLT, %function
 400              	can_process_BMS_VOLT:
 401              	.LFB70:
 163:can_manager.c **** 
 164:can_manager.c **** //gets pack voltage
 165:can_manager.c **** void can_process_BMS_VOLT() {
 402              		.loc 1 165 0
 403              		.cfi_startproc
 404              		@ args = 0, pretend = 0, frame = 8
 405              		@ frame_needed = 0, uses_anonymous_args = 0
 406 0000 00B5     		push	{lr}
 407              		.cfi_def_cfa_offset 4
 408              		.cfi_offset 14, -4
 409 0002 83B0     		sub	sp, sp, #12
 410              		.cfi_def_cfa_offset 16
 166:can_manager.c **** 	uint32_t voltage;
 167:can_manager.c **** 	char8 volt_string[6];
 168:can_manager.c **** 	
 169:can_manager.c **** 	uint32_t byte4 = BMS_VOLTAGE.data[4] << 24;
 411              		.loc 1 169 0
 412 0004 1449     		ldr	r1, .L32
 413 0006 C87A     		ldrb	r0, [r1, #11]	@ zero_extendqisi2
 414              	.LVL47:
 170:can_manager.c **** 	uint32_t byte3 = BMS_VOLTAGE.data[5] << 16;
 415              		.loc 1 170 0
 416 0008 0A7B     		ldrb	r2, [r1, #12]	@ zero_extendqisi2
 417 000a 1204     		lsls	r2, r2, #16
 418              	.LVL48:
 171:can_manager.c **** 	uint32_t byte2 = BMS_VOLTAGE.data[6] << 8;
 419              		.loc 1 171 0
 420 000c 4B7B     		ldrb	r3, [r1, #13]	@ zero_extendqisi2
 421              	.LVL49:
 172:can_manager.c **** 	uint32_t byte1 = BMS_VOLTAGE.data[7];
 422              		.loc 1 172 0
 423 000e 897B     		ldrb	r1, [r1, #14]	@ zero_extendqisi2
 424              	.LVL50:
 173:can_manager.c **** 	voltage = byte4 | byte3 | byte2 | byte1;
 425              		.loc 1 173 0
 426 0010 42EA0062 		orr	r2, r2, r0, lsl #24
 427              	.LVL51:
 428 0014 42EA0323 		orr	r3, r2, r3, lsl #8
 429              	.LVL52:
 430 0018 0B43     		orrs	r3, r3, r1
 431              	.LVL53:
 174:can_manager.c **** 	
 175:can_manager.c **** 	//voltage = 0x0001C3E3;
 176:can_manager.c **** 	sprintf(volt_string, "%03d.%01dV", (int)(voltage/1000), (int)(voltage/100%10));
ARM GAS  C:\Users\Schuyler\AppData\Local\Temp\ccamabNe.s 			page 12


 432              		.loc 1 176 0
 433 001a 104A     		ldr	r2, .L32+4
 434 001c A2FB0312 		umull	r1, r2, r2, r3
 435              	.LVL54:
 436 0020 0F49     		ldr	r1, .L32+8
 437 0022 A1FB0313 		umull	r1, r3, r1, r3
 438              	.LVL55:
 439 0026 5B09     		lsrs	r3, r3, #5
 440 0028 0E49     		ldr	r1, .L32+12
 441 002a A1FB0301 		umull	r0, r1, r1, r3
 442              	.LVL56:
 443 002e C908     		lsrs	r1, r1, #3
 444 0030 01EB8101 		add	r1, r1, r1, lsl #2
 445 0034 4800     		lsls	r0, r1, #1
 446 0036 1B1A     		subs	r3, r3, r0
 447 0038 9209     		lsrs	r2, r2, #6
 448 003a 0B49     		ldr	r1, .L32+16
 449 003c 6846     		mov	r0, sp
 450 003e FFF7FEFF 		bl	sprintf
 451              	.LVL57:
 177:can_manager.c **** 	LCD_Position(0, 3);
 452              		.loc 1 177 0
 453 0042 0321     		movs	r1, #3
 454 0044 0020     		movs	r0, #0
 455 0046 FFF7FEFF 		bl	LCD_Position
 456              	.LVL58:
 178:can_manager.c **** 	LCD_PrintString(volt_string);
 457              		.loc 1 178 0
 458 004a 6846     		mov	r0, sp
 459 004c FFF7FEFF 		bl	LCD_PrintString
 460              	.LVL59:
 179:can_manager.c **** }
 461              		.loc 1 179 0
 462 0050 03B0     		add	sp, sp, #12
 463              		.cfi_def_cfa_offset 4
 464              		@ sp needed
 465 0052 5DF804FB 		ldr	pc, [sp], #4
 466              	.L33:
 467 0056 00BF     		.align	2
 468              	.L32:
 469 0058 00000000 		.word	BMS_VOLTAGE
 470 005c D34D6210 		.word	274877907
 471 0060 1F85EB51 		.word	1374389535
 472 0064 CDCCCCCC 		.word	-858993459
 473 0068 18000000 		.word	.LC2
 474              		.cfi_endproc
 475              	.LFE70:
 476              		.size	can_process_BMS_VOLT, .-can_process_BMS_VOLT
 477              		.section	.text.can_process_BMS_VOLT_D,"ax",%progbits
 478              		.align	2
 479              		.global	can_process_BMS_VOLT_D
 480              		.thumb
 481              		.thumb_func
 482              		.type	can_process_BMS_VOLT_D, %function
 483              	can_process_BMS_VOLT_D:
 484              	.LFB71:
 180:can_manager.c **** 
ARM GAS  C:\Users\Schuyler\AppData\Local\Temp\ccamabNe.s 			page 13


 181:can_manager.c **** //gets pack voltage diff
 182:can_manager.c **** void can_process_BMS_VOLT_D() {
 485              		.loc 1 182 0
 486              		.cfi_startproc
 487              		@ args = 0, pretend = 0, frame = 8
 488              		@ frame_needed = 0, uses_anonymous_args = 0
 489 0000 00B5     		push	{lr}
 490              		.cfi_def_cfa_offset 4
 491              		.cfi_offset 14, -4
 492 0002 83B0     		sub	sp, sp, #12
 493              		.cfi_def_cfa_offset 16
 183:can_manager.c **** 	uint16_t voltageDiff;
 184:can_manager.c **** 	char8 volt_string[6];
 185:can_manager.c **** 	
 186:can_manager.c ****     uint16_t minVoltByte2 = BMS_VOLTAGE.data[0] << 8;
 494              		.loc 1 186 0
 495 0004 0C49     		ldr	r1, .L36
 496 0006 CA79     		ldrb	r2, [r1, #7]	@ zero_extendqisi2
 497              	.LVL60:
 187:can_manager.c ****     uint16_t minVoltByte1 = BMS_VOLTAGE.data[1];
 498              		.loc 1 187 0
 499 0008 0B7A     		ldrb	r3, [r1, #8]	@ zero_extendqisi2
 500              	.LVL61:
 188:can_manager.c ****     uint16_t minVolt = minVoltByte2 | minVoltByte1;
 501              		.loc 1 188 0
 502 000a 43EA0220 		orr	r0, r3, r2, lsl #8
 503              	.LVL62:
 189:can_manager.c ****     
 190:can_manager.c ****     
 191:can_manager.c ****     uint16_t maxVoltByte2 = BMS_VOLTAGE.data[2] << 8;
 504              		.loc 1 191 0
 505 000e 4A7A     		ldrb	r2, [r1, #9]	@ zero_extendqisi2
 506              	.LVL63:
 192:can_manager.c ****     uint16_t maxVoltByte1 = BMS_VOLTAGE.data[3];
 507              		.loc 1 192 0
 508 0010 8B7A     		ldrb	r3, [r1, #10]	@ zero_extendqisi2
 509              	.LVL64:
 193:can_manager.c ****     uint16_t maxVolt = maxVoltByte2 | maxVoltByte1;
 510              		.loc 1 193 0
 511 0012 43EA0223 		orr	r3, r3, r2, lsl #8
 512              	.LVL65:
 194:can_manager.c ****     
 195:can_manager.c ****     voltageDiff = maxVolt - minVolt;
 513              		.loc 1 195 0
 514 0016 1A1A     		subs	r2, r3, r0
 515              	.LVL66:
 196:can_manager.c **** 	
 197:can_manager.c **** 	//voltage = 0x0001C3E3;
 198:can_manager.c **** 	sprintf(volt_string, "%04dVD", (int)(voltageDiff));
 516              		.loc 1 198 0
 517 0018 92B2     		uxth	r2, r2
 518 001a 0849     		ldr	r1, .L36+4
 519              	.LVL67:
 520 001c 6846     		mov	r0, sp
 521              	.LVL68:
 522 001e FFF7FEFF 		bl	sprintf
 523              	.LVL69:
ARM GAS  C:\Users\Schuyler\AppData\Local\Temp\ccamabNe.s 			page 14


 199:can_manager.c **** 	LCD_Position(0, 3);
 524              		.loc 1 199 0
 525 0022 0321     		movs	r1, #3
 526 0024 0020     		movs	r0, #0
 527 0026 FFF7FEFF 		bl	LCD_Position
 528              	.LVL70:
 200:can_manager.c **** 	LCD_PrintString(volt_string);
 529              		.loc 1 200 0
 530 002a 6846     		mov	r0, sp
 531 002c FFF7FEFF 		bl	LCD_PrintString
 532              	.LVL71:
 201:can_manager.c **** }
 533              		.loc 1 201 0
 534 0030 03B0     		add	sp, sp, #12
 535              		.cfi_def_cfa_offset 4
 536              		@ sp needed
 537 0032 5DF804FB 		ldr	pc, [sp], #4
 538              	.L37:
 539 0036 00BF     		.align	2
 540              	.L36:
 541 0038 00000000 		.word	BMS_VOLTAGE
 542 003c 24000000 		.word	.LC3
 543              		.cfi_endproc
 544              	.LFE71:
 545              		.size	can_process_BMS_VOLT_D, .-can_process_BMS_VOLT_D
 546              		.section	.text.can_process_BMS_TEMP,"ax",%progbits
 547              		.align	2
 548              		.global	can_process_BMS_TEMP
 549              		.thumb
 550              		.thumb_func
 551              		.type	can_process_BMS_TEMP, %function
 552              	can_process_BMS_TEMP:
 553              	.LFB72:
 202:can_manager.c **** 
 203:can_manager.c **** //highest temp
 204:can_manager.c **** void can_process_BMS_TEMP() {
 554              		.loc 1 204 0
 555              		.cfi_startproc
 556              		@ args = 0, pretend = 0, frame = 0
 557              		@ frame_needed = 0, uses_anonymous_args = 0
 558 0000 10B5     		push	{r4, lr}
 559              		.cfi_def_cfa_offset 8
 560              		.cfi_offset 4, -8
 561              		.cfi_offset 14, -4
 205:can_manager.c **** 	uint8_t temperature = BMS_TEMP.data[7];	//displays as decimal
 562              		.loc 1 205 0
 563 0002 054B     		ldr	r3, .L40
 564 0004 9C7B     		ldrb	r4, [r3, #14]	@ zero_extendqisi2
 565              	.LVL72:
 206:can_manager.c **** 	//temperature = 0x25;
 207:can_manager.c **** 	LCD_Position(1, 13);
 566              		.loc 1 207 0
 567 0006 0D21     		movs	r1, #13
 568 0008 0120     		movs	r0, #1
 569 000a FFF7FEFF 		bl	LCD_Position
 570              	.LVL73:
 208:can_manager.c **** 	LCD_PrintHexUint8(temperature);
ARM GAS  C:\Users\Schuyler\AppData\Local\Temp\ccamabNe.s 			page 15


 571              		.loc 1 208 0
 572 000e 2046     		mov	r0, r4
 573 0010 FFF7FEFF 		bl	LCD_PrintInt8
 574              	.LVL74:
 575 0014 10BD     		pop	{r4, pc}
 576              	.LVL75:
 577              	.L41:
 578 0016 00BF     		.align	2
 579              	.L40:
 580 0018 00000000 		.word	BMS_TEMP
 581              		.cfi_endproc
 582              	.LFE72:
 583              		.size	can_process_BMS_TEMP, .-can_process_BMS_TEMP
 584              		.section	.text.can_process,"ax",%progbits
 585              		.align	2
 586              		.global	can_process
 587              		.thumb
 588              		.thumb_func
 589              		.type	can_process, %function
 590              	can_process:
 591              	.LFB66:
  39:can_manager.c **** 	int status = 0;		//returns 1 if message is updated
 592              		.loc 1 39 0
 593              		.cfi_startproc
 594              		@ args = 0, pretend = 0, frame = 0
 595              		@ frame_needed = 0, uses_anonymous_args = 0
 596              	.LVL76:
 597 0000 10B5     		push	{r4, lr}
 598              		.cfi_def_cfa_offset 8
 599              		.cfi_offset 4, -8
 600              		.cfi_offset 14, -4
 601              	.LVL77:
  41:can_manager.c **** 	case BMS_STATUS_ID:
 602              		.loc 1 41 0
 603 0002 8388     		ldrh	r3, [r0, #4]
 604 0004 B3F5227F 		cmp	r3, #648
 605 0008 14D0     		beq	.L44
 606 000a 03D8     		bhi	.L45
 607 000c B3F5C47F 		cmp	r3, #392
 608 0010 07D0     		beq	.L46
 609 0012 2AE0     		b	.L49
 610              	.L45:
 611 0014 B3F5627F 		cmp	r3, #904
 612 0018 15D0     		beq	.L47
 613 001a B3F5916F 		cmp	r3, #1160
 614 001e 1BD0     		beq	.L48
 615 0020 23E0     		b	.L49
 616              	.L46:
  43:can_manager.c **** 		if(status)
 617              		.loc 1 43 0
 618 0022 0146     		mov	r1, r0
 619 0024 1248     		ldr	r0, .L51
 620              	.LVL78:
 621 0026 FFF7FEFF 		bl	can_compare
 622              	.LVL79:
  44:can_manager.c ****             can_process_BMS_STATUS();
 623              		.loc 1 44 0
ARM GAS  C:\Users\Schuyler\AppData\Local\Temp\ccamabNe.s 			page 16


 624 002a 0446     		mov	r4, r0
 625 002c F0B1     		cbz	r0, .L43
  45:can_manager.c **** 		break;
 626              		.loc 1 45 0
 627 002e FFF7FEFF 		bl	can_process_BMS_STATUS
 628              	.LVL80:
 629 0032 1BE0     		b	.L43
 630              	.LVL81:
 631              	.L44:
  48:can_manager.c **** 		if(status)
 632              		.loc 1 48 0
 633 0034 0146     		mov	r1, r0
 634 0036 0F48     		ldr	r0, .L51+4
 635              	.LVL82:
 636 0038 FFF7FEFF 		bl	can_compare
 637              	.LVL83:
  49:can_manager.c **** 			can_process_BMS_CURR();
 638              		.loc 1 49 0
 639 003c 0446     		mov	r4, r0
 640 003e A8B1     		cbz	r0, .L43
  50:can_manager.c **** 		break;
 641              		.loc 1 50 0
 642 0040 FFF7FEFF 		bl	can_process_BMS_CURR
 643              	.LVL84:
 644 0044 12E0     		b	.L43
 645              	.LVL85:
 646              	.L47:
  53:can_manager.c **** 		if(status) {
 647              		.loc 1 53 0
 648 0046 0146     		mov	r1, r0
 649 0048 0B48     		ldr	r0, .L51+8
 650              	.LVL86:
 651 004a FFF7FEFF 		bl	can_compare
 652              	.LVL87:
  54:can_manager.c **** 		    #ifdef VOLTAGE_DIFF
 653              		.loc 1 54 0
 654 004e 0446     		mov	r4, r0
 655 0050 60B1     		cbz	r0, .L43
  56:can_manager.c ****             #else
 656              		.loc 1 56 0
 657 0052 FFF7FEFF 		bl	can_process_BMS_VOLT_D
 658              	.LVL88:
 659 0056 09E0     		b	.L43
 660              	.LVL89:
 661              	.L48:
  63:can_manager.c **** 		if(status)
 662              		.loc 1 63 0
 663 0058 0146     		mov	r1, r0
 664 005a 0848     		ldr	r0, .L51+12
 665              	.LVL90:
 666 005c FFF7FEFF 		bl	can_compare
 667              	.LVL91:
  64:can_manager.c **** 			can_process_BMS_TEMP();
 668              		.loc 1 64 0
 669 0060 0446     		mov	r4, r0
 670 0062 18B1     		cbz	r0, .L43
  65:can_manager.c **** 		break;
ARM GAS  C:\Users\Schuyler\AppData\Local\Temp\ccamabNe.s 			page 17


 671              		.loc 1 65 0
 672 0064 FFF7FEFF 		bl	can_process_BMS_TEMP
 673              	.LVL92:
 674 0068 00E0     		b	.L43
 675              	.LVL93:
 676              	.L49:
  68:can_manager.c ****         break;
 677              		.loc 1 68 0
 678 006a 0024     		movs	r4, #0
 679              	.LVL94:
 680              	.L43:
  72:can_manager.c **** 
 681              		.loc 1 72 0
 682 006c 2046     		mov	r0, r4
 683 006e 10BD     		pop	{r4, pc}
 684              	.LVL95:
 685              	.L52:
 686              		.align	2
 687              	.L51:
 688 0070 00000000 		.word	BMS_STATUS
 689 0074 00000000 		.word	BMS_CURRENT
 690 0078 00000000 		.word	BMS_VOLTAGE
 691 007c 00000000 		.word	BMS_TEMP
 692              		.cfi_endproc
 693              	.LFE66:
 694              		.size	can_process, .-can_process
 695              		.section	.text.can_test_send,"ax",%progbits
 696              		.align	2
 697              		.global	can_test_send
 698              		.thumb
 699              		.thumb_func
 700              		.type	can_test_send, %function
 701              	can_test_send:
 702              	.LFB73:
 209:can_manager.c **** }
 210:can_manager.c **** 
 211:can_manager.c **** 
 212:can_manager.c **** void can_test_send() {
 703              		.loc 1 212 0
 704              		.cfi_startproc
 705              		@ args = 0, pretend = 0, frame = 24
 706              		@ frame_needed = 0, uses_anonymous_args = 0
 707 0000 00B5     		push	{lr}
 708              		.cfi_def_cfa_offset 4
 709              		.cfi_offset 14, -4
 710 0002 87B0     		sub	sp, sp, #28
 711              		.cfi_def_cfa_offset 32
 213:can_manager.c **** 	uint8_t i;
 214:can_manager.c **** 	CAN_TX_MSG message;
 215:can_manager.c **** 	CAN_DATA_BYTES_MSG test_data;
 216:can_manager.c **** 
 217:can_manager.c **** 	message.id = 0x100;
 712              		.loc 1 217 0
 713 0004 4FF48073 		mov	r3, #256
 714 0008 0393     		str	r3, [sp, #12]
 218:can_manager.c **** 	message.rtr = 0;
 715              		.loc 1 218 0
ARM GAS  C:\Users\Schuyler\AppData\Local\Temp\ccamabNe.s 			page 18


 716 000a 0023     		movs	r3, #0
 717 000c 8DF81030 		strb	r3, [sp, #16]
 219:can_manager.c **** 	message.ide = 0;
 718              		.loc 1 219 0
 719 0010 8DF81130 		strb	r3, [sp, #17]
 220:can_manager.c **** 	message.dlc = 0x08;
 720              		.loc 1 220 0
 721 0014 0822     		movs	r2, #8
 722 0016 8DF81220 		strb	r2, [sp, #18]
 221:can_manager.c **** 	message.irq = 1;
 723              		.loc 1 221 0
 724 001a 0122     		movs	r2, #1
 725 001c 8DF81320 		strb	r2, [sp, #19]
 222:can_manager.c **** 	message.msg = &test_data;
 726              		.loc 1 222 0
 727 0020 01AA     		add	r2, sp, #4
 728 0022 0592     		str	r2, [sp, #20]
 729              	.LVL96:
 223:can_manager.c **** 
 224:can_manager.c **** 	for(i=0;i<8;i++)
 730              		.loc 1 224 0
 731 0024 06E0     		b	.L54
 732              	.LVL97:
 733              	.L55:
 225:can_manager.c **** 		test_data.byte[i] = 2;
 734              		.loc 1 225 0 discriminator 3
 735 0026 06AA     		add	r2, sp, #24
 736 0028 1A44     		add	r2, r2, r3
 737 002a 0221     		movs	r1, #2
 738 002c 02F8141C 		strb	r1, [r2, #-20]
 224:can_manager.c **** 		test_data.byte[i] = 2;
 739              		.loc 1 224 0 discriminator 3
 740 0030 0133     		adds	r3, r3, #1
 741              	.LVL98:
 742 0032 DBB2     		uxtb	r3, r3
 743              	.LVL99:
 744              	.L54:
 224:can_manager.c **** 		test_data.byte[i] = 2;
 745              		.loc 1 224 0 is_stmt 0 discriminator 1
 746 0034 072B     		cmp	r3, #7
 747 0036 F6D9     		bls	.L55
 226:can_manager.c **** 
 227:can_manager.c **** 	CAN_SendMsg(&message);
 748              		.loc 1 227 0 is_stmt 1
 749 0038 03A8     		add	r0, sp, #12
 750 003a FFF7FEFF 		bl	CAN_SendMsg
 751              	.LVL100:
 228:can_manager.c **** } // can_test_send()
 752              		.loc 1 228 0
 753 003e 07B0     		add	sp, sp, #28
 754              		.cfi_def_cfa_offset 4
 755              		@ sp needed
 756 0040 5DF804FB 		ldr	pc, [sp], #4
 757              		.cfi_endproc
 758              	.LFE73:
 759              		.size	can_test_send, .-can_test_send
 760              		.section	.text.can_test_receive,"ax",%progbits
ARM GAS  C:\Users\Schuyler\AppData\Local\Temp\ccamabNe.s 			page 19


 761              		.align	2
 762              		.global	can_test_receive
 763              		.thumb
 764              		.thumb_func
 765              		.type	can_test_receive, %function
 766              	can_test_receive:
 767              	.LFB74:
 229:can_manager.c **** 
 230:can_manager.c **** 
 231:can_manager.c **** void can_test_receive() {
 768              		.loc 1 231 0
 769              		.cfi_startproc
 770              		@ args = 0, pretend = 0, frame = 0
 771              		@ frame_needed = 0, uses_anonymous_args = 0
 772              		@ link register save eliminated.
 773              	.LVL101:
 232:can_manager.c **** 	DataPacket test_msg;
 233:can_manager.c ****     uint8 i;
 234:can_manager.c **** 	
 235:can_manager.c ****     //test packets
 236:can_manager.c ****     for(i=100; i<115; i++) { 
 774              		.loc 1 236 0
 775 0000 6423     		movs	r3, #100
 776 0002 01E0     		b	.L58
 777              	.LVL102:
 778              	.L59:
 779              		.loc 1 236 0 is_stmt 0 discriminator 3
 780 0004 0133     		adds	r3, r3, #1
 781              	.LVL103:
 782 0006 DBB2     		uxtb	r3, r3
 783              	.LVL104:
 784              	.L58:
 785              		.loc 1 236 0 discriminator 1
 786 0008 722B     		cmp	r3, #114
 787 000a FBD9     		bls	.L59
 237:can_manager.c **** 		//test_msg.millicounter = millis_timer_ReadCounter();    
 238:can_manager.c **** 		test_msg.id = 0x0923;
 239:can_manager.c **** 		test_msg.length = 8;
 240:can_manager.c **** 		test_msg.data[0]= 1;
 241:can_manager.c **** 		test_msg.data[1]= 2;
 242:can_manager.c **** 		test_msg.data[2]= 3;
 243:can_manager.c **** 		test_msg.data[3]= 4;
 244:can_manager.c **** 		test_msg.data[4]= 5;
 245:can_manager.c **** 		test_msg.data[5]= 6;
 246:can_manager.c **** 		test_msg.data[6]= 7;
 247:can_manager.c ****         test_msg.data[7]= 8;
 248:can_manager.c **** 		
 249:can_manager.c **** 		//msg_recieve(&test_msg);
 250:can_manager.c ****     } //for
 251:can_manager.c **** }
 788              		.loc 1 251 0 is_stmt 1
 789 000c 7047     		bx	lr
 790              		.cfi_endproc
 791              	.LFE74:
 792              		.size	can_test_receive, .-can_test_receive
 793              		.comm	BMS_TEMP,16,4
 794              		.comm	BMS_VOLTAGE,16,4
ARM GAS  C:\Users\Schuyler\AppData\Local\Temp\ccamabNe.s 			page 20


 795              		.comm	BMS_CURRENT,16,4
 796              		.comm	BMS_STATUS,16,4
 797 000e 00BF     		.section	.rodata.str1.4,"aMS",%progbits,1
 798              		.align	2
 799              	.LC0:
 800 0000 25303258 		.ascii	"%02X%02X\000"
 800      25303258 
 800      00
 801 0009 000000   		.space	3
 802              	.LC1:
 803 000c 25303364 		.ascii	"%03d.%01dA\000"
 803      2E253031 
 803      644100
 804 0017 00       		.space	1
 805              	.LC2:
 806 0018 25303364 		.ascii	"%03d.%01dV\000"
 806      2E253031 
 806      645600
 807 0023 00       		.space	1
 808              	.LC3:
 809 0024 25303464 		.ascii	"%04dVD\000"
 809      564400
 810              		.text
 811              	.Letext0:
 812              		.file 2 "c:\\program files (x86)\\cypress\\psoc creator\\4.1\\psoc creator\\import\\gnu\\arm\\5.4.
 813              		.file 3 "c:\\program files (x86)\\cypress\\psoc creator\\4.1\\psoc creator\\import\\gnu\\arm\\5.4.
 814              		.file 4 "Generated_Source\\PSoC5/cytypes.h"
 815              		.file 5 "Generated_Source\\PSoC5/CAN.h"
 816              		.file 6 "data.h"
 817              		.file 7 "Generated_Source\\PSoC5/core_cm3.h"
 818              		.file 8 "c:\\program files (x86)\\cypress\\psoc creator\\4.1\\psoc creator\\import\\gnu\\arm\\5.4.
 819              		.file 9 "Generated_Source\\PSoC5/LCD.h"