ARM GAS  C:\Users\Schuyler\AppData\Local\Temp\ccdbj0Ku.s 			page 1


   1              		.syntax unified
   2              		.cpu cortex-m3
   3              		.fpu softvfp
   4              		.eabi_attribute 20, 1
   5              		.eabi_attribute 21, 1
   6              		.eabi_attribute 23, 3
   7              		.eabi_attribute 24, 1
   8              		.eabi_attribute 25, 1
   9              		.eabi_attribute 26, 1
  10              		.eabi_attribute 30, 1
  11              		.eabi_attribute 34, 1
  12              		.eabi_attribute 18, 4
  13              		.thumb
  14              		.syntax unified
  15              		.file	"lcd_manager.c"
  16              		.text
  17              	.Ltext0:
  18              		.cfi_sections	.debug_frame
  19              		.section	.text.lcd_init,"ax",%progbits
  20              		.align	2
  21              		.global	lcd_init
  22              		.thumb
  23              		.thumb_func
  24              		.type	lcd_init, %function
  25              	lcd_init:
  26              	.LFB64:
  27              		.file 1 "lcd_manager.c"
   1:lcd_manager.c **** 
   2:lcd_manager.c **** #include "lcd_manager.h"
   3:lcd_manager.c **** #include <stdlib.h>
   4:lcd_manager.c **** #include <stdio.h>
   5:lcd_manager.c **** int count = 0;
   6:lcd_manager.c **** 
   7:lcd_manager.c **** void lcd_init() {
  28              		.loc 1 7 0
  29              		.cfi_startproc
  30              		@ args = 0, pretend = 0, frame = 40
  31              		@ frame_needed = 0, uses_anonymous_args = 0
  32 0000 30B5     		push	{r4, r5, lr}
  33              		.cfi_def_cfa_offset 12
  34              		.cfi_offset 4, -12
  35              		.cfi_offset 5, -8
  36              		.cfi_offset 14, -4
  37 0002 8BB0     		sub	sp, sp, #44
  38              		.cfi_def_cfa_offset 56
   8:lcd_manager.c **** 	LCD_Start();
  39              		.loc 1 8 0
  40 0004 FFF7FEFF 		bl	LCD_Start
  41              	.LVL0:
   9:lcd_manager.c **** 	char8 intro1[] = "Formula Racing";
  42              		.loc 1 9 0
  43 0008 0E4B     		ldr	r3, .L3
  44 000a 06AC     		add	r4, sp, #24
  45 000c 0FCB     		ldmia	r3, {r0, r1, r2, r3}
  46 000e 07C4     		stmia	r4!, {r0, r1, r2}
  47 0010 24F8023B 		strh	r3, [r4], #2	@ movhi
  48 0014 1B0C     		lsrs	r3, r3, #16
ARM GAS  C:\Users\Schuyler\AppData\Local\Temp\ccdbj0Ku.s 			page 2


  49 0016 2370     		strb	r3, [r4]
  10:lcd_manager.c **** 	char8 intro2[] = "Charging Circuit";
  50              		.loc 1 10 0
  51 0018 01AC     		add	r4, sp, #4
  52 001a 0B4D     		ldr	r5, .L3+4
  53 001c 0FCD     		ldmia	r5!, {r0, r1, r2, r3}
  54 001e 0FC4     		stmia	r4!, {r0, r1, r2, r3}
  55 0020 2B68     		ldr	r3, [r5]
  56 0022 2370     		strb	r3, [r4]
  11:lcd_manager.c **** 	LCD_PrintString(intro1);
  57              		.loc 1 11 0
  58 0024 06A8     		add	r0, sp, #24
  59 0026 FFF7FEFF 		bl	LCD_PrintString
  60              	.LVL1:
  12:lcd_manager.c **** 	LCD_Position(1, 0);
  61              		.loc 1 12 0
  62 002a 0021     		movs	r1, #0
  63 002c 0120     		movs	r0, #1
  64 002e FFF7FEFF 		bl	LCD_Position
  65              	.LVL2:
  13:lcd_manager.c **** 	LCD_PrintString(intro2);
  66              		.loc 1 13 0
  67 0032 01A8     		add	r0, sp, #4
  68 0034 FFF7FEFF 		bl	LCD_PrintString
  69              	.LVL3:
  14:lcd_manager.c **** 	CyDelay(3000);
  70              		.loc 1 14 0
  71 0038 40F6B830 		movw	r0, #3000
  72 003c FFF7FEFF 		bl	CyDelay
  73              	.LVL4:
  15:lcd_manager.c **** }
  74              		.loc 1 15 0
  75 0040 0BB0     		add	sp, sp, #44
  76              		.cfi_def_cfa_offset 12
  77              		@ sp needed
  78 0042 30BD     		pop	{r4, r5, pc}
  79              	.L4:
  80              		.align	2
  81              	.L3:
  82 0044 00000000 		.word	.LC0
  83 0048 10000000 		.word	.LC1
  84              		.cfi_endproc
  85              	.LFE64:
  86              		.size	lcd_init, .-lcd_init
  87              		.section	.text.lcd_print_bms,"ax",%progbits
  88              		.align	2
  89              		.global	lcd_print_bms
  90              		.thumb
  91              		.thumb_func
  92              		.type	lcd_print_bms, %function
  93              	lcd_print_bms:
  94              	.LFB65:
  16:lcd_manager.c **** 	
  17:lcd_manager.c **** void lcd_print_bms() {
  95              		.loc 1 17 0
  96              		.cfi_startproc
  97              		@ args = 0, pretend = 0, frame = 40
ARM GAS  C:\Users\Schuyler\AppData\Local\Temp\ccdbj0Ku.s 			page 3


  98              		@ frame_needed = 0, uses_anonymous_args = 0
  99 0000 30B5     		push	{r4, r5, lr}
 100              		.cfi_def_cfa_offset 12
 101              		.cfi_offset 4, -12
 102              		.cfi_offset 5, -8
 103              		.cfi_offset 14, -4
 104 0002 8BB0     		sub	sp, sp, #44
 105              		.cfi_def_cfa_offset 56
  18:lcd_manager.c **** 	char8 BMS1[] = "V: 000.0V E:0000";
 106              		.loc 1 18 0
 107 0004 05AC     		add	r4, sp, #20
 108 0006 0F4D     		ldr	r5, .L7
 109 0008 0FCD     		ldmia	r5!, {r0, r1, r2, r3}
 110 000a 0FC4     		stmia	r4!, {r0, r1, r2, r3}
 111 000c 2B68     		ldr	r3, [r5]
 112 000e 2370     		strb	r3, [r4]
  19:lcd_manager.c **** 	char8 BMS2[] = "C: 000.0A T: 00C";  
 113              		.loc 1 19 0
 114 0010 6C46     		mov	r4, sp
 115 0012 0D4D     		ldr	r5, .L7+4
 116 0014 0FCD     		ldmia	r5!, {r0, r1, r2, r3}
 117 0016 0FC4     		stmia	r4!, {r0, r1, r2, r3}
 118 0018 2B68     		ldr	r3, [r5]
 119 001a 2370     		strb	r3, [r4]
  20:lcd_manager.c **** 	
  21:lcd_manager.c **** 	LCD_ClearDisplay();
 120              		.loc 1 21 0
 121 001c 0120     		movs	r0, #1
 122 001e FFF7FEFF 		bl	LCD_WriteControl
 123              	.LVL5:
  22:lcd_manager.c **** 	LCD_Position(0, 0);
 124              		.loc 1 22 0
 125 0022 0021     		movs	r1, #0
 126 0024 0846     		mov	r0, r1
 127 0026 FFF7FEFF 		bl	LCD_Position
 128              	.LVL6:
  23:lcd_manager.c **** 	LCD_PrintString(BMS1);
 129              		.loc 1 23 0
 130 002a 05A8     		add	r0, sp, #20
 131 002c FFF7FEFF 		bl	LCD_PrintString
 132              	.LVL7:
  24:lcd_manager.c **** 	LCD_Position(1, 0);
 133              		.loc 1 24 0
 134 0030 0021     		movs	r1, #0
 135 0032 0120     		movs	r0, #1
 136 0034 FFF7FEFF 		bl	LCD_Position
 137              	.LVL8:
  25:lcd_manager.c **** 	LCD_PrintString(BMS2);
 138              		.loc 1 25 0
 139 0038 6846     		mov	r0, sp
 140 003a FFF7FEFF 		bl	LCD_PrintString
 141              	.LVL9:
  26:lcd_manager.c **** }
 142              		.loc 1 26 0
 143 003e 0BB0     		add	sp, sp, #44
 144              		.cfi_def_cfa_offset 12
 145              		@ sp needed
ARM GAS  C:\Users\Schuyler\AppData\Local\Temp\ccdbj0Ku.s 			page 4


 146 0040 30BD     		pop	{r4, r5, pc}
 147              	.L8:
 148 0042 00BF     		.align	2
 149              	.L7:
 150 0044 24000000 		.word	.LC2
 151 0048 38000000 		.word	.LC3
 152              		.cfi_endproc
 153              	.LFE65:
 154              		.size	lcd_print_bms, .-lcd_print_bms
 155              		.section	.text.lcd_test_print,"ax",%progbits
 156              		.align	2
 157              		.global	lcd_test_print
 158              		.thumb
 159              		.thumb_func
 160              		.type	lcd_test_print, %function
 161              	lcd_test_print:
 162              	.LFB66:
  27:lcd_manager.c **** 
  28:lcd_manager.c **** 
  29:lcd_manager.c **** void lcd_test_print() {
 163              		.loc 1 29 0
 164              		.cfi_startproc
 165              		@ args = 0, pretend = 0, frame = 16
 166              		@ frame_needed = 0, uses_anonymous_args = 0
 167 0000 00B5     		push	{lr}
 168              		.cfi_def_cfa_offset 4
 169              		.cfi_offset 14, -4
 170 0002 85B0     		sub	sp, sp, #20
 171              		.cfi_def_cfa_offset 24
  30:lcd_manager.c **** 	char8 const test_string[] = "Hi there, test!";
  31:lcd_manager.c **** 	char8 test_buf[32];
  32:lcd_manager.c **** 	
  33:lcd_manager.c **** 	//count++;
  34:lcd_manager.c **** 	//itoa(count, test_buf, 10);
  35:lcd_manager.c **** 	LCD_ClearDisplay();
 172              		.loc 1 35 0
 173 0004 0120     		movs	r0, #1
 174 0006 FFF7FEFF 		bl	LCD_WriteControl
 175              	.LVL10:
  36:lcd_manager.c **** 	//LCD_Position(0,0);
  37:lcd_manager.c **** 	//LCD_PrintString(test_buf);
  38:lcd_manager.c **** 	//LCD_PrintInt32(count);
  39:lcd_manager.c **** 	//LCD_PrintInt8(count);
  40:lcd_manager.c **** 	
  41:lcd_manager.c **** 	//voltage test print
  42:lcd_manager.c **** 	uint32_t voltage = 0x00017475;	//095.349
  43:lcd_manager.c **** 	char8 volt_string[5];
  44:lcd_manager.c **** 	LCD_Position(0,3);
 176              		.loc 1 44 0
 177 000a 0321     		movs	r1, #3
 178 000c 0020     		movs	r0, #0
 179 000e FFF7FEFF 		bl	LCD_Position
 180              	.LVL11:
  45:lcd_manager.c **** 	//sprintf(volt_string, "%03d.%01d", voltage/1000, voltage/100%10);
  46:lcd_manager.c **** 	LCD_PrintString(volt_string);
 181              		.loc 1 46 0
 182 0012 02A8     		add	r0, sp, #8
ARM GAS  C:\Users\Schuyler\AppData\Local\Temp\ccdbj0Ku.s 			page 5


 183 0014 FFF7FEFF 		bl	LCD_PrintString
 184              	.LVL12:
  47:lcd_manager.c **** 	
  48:lcd_manager.c **** 	//temp
  49:lcd_manager.c **** 	uint8_t temperature = 0x24;
  50:lcd_manager.c **** 	LCD_Position(1, 13);
 185              		.loc 1 50 0
 186 0018 0D21     		movs	r1, #13
 187 001a 0120     		movs	r0, #1
 188 001c FFF7FEFF 		bl	LCD_Position
 189              	.LVL13:
  51:lcd_manager.c **** 	LCD_PrintHexUint8(temperature);
 190              		.loc 1 51 0
 191 0020 2420     		movs	r0, #36
 192 0022 FFF7FEFF 		bl	LCD_PrintInt8
 193              	.LVL14:
  52:lcd_manager.c **** 	
  53:lcd_manager.c **** 	//current
  54:lcd_manager.c **** 	uint16_t current = 0x123;
  55:lcd_manager.c **** 	char8 curr_string[3];
  56:lcd_manager.c **** 	sprintf(curr_string, "%03d", current); 
 194              		.loc 1 56 0
 195 0026 40F22312 		movw	r2, #291
 196 002a 0749     		ldr	r1, .L11
 197 002c 01A8     		add	r0, sp, #4
 198 002e FFF7FEFF 		bl	sprintf
 199              	.LVL15:
  57:lcd_manager.c **** 	LCD_Position(1, 3);
 200              		.loc 1 57 0
 201 0032 0321     		movs	r1, #3
 202 0034 0120     		movs	r0, #1
 203 0036 FFF7FEFF 		bl	LCD_Position
 204              	.LVL16:
  58:lcd_manager.c **** 	LCD_PrintString(curr_string);
 205              		.loc 1 58 0
 206 003a 01A8     		add	r0, sp, #4
 207 003c FFF7FEFF 		bl	LCD_PrintString
 208              	.LVL17:
  59:lcd_manager.c **** }
 209              		.loc 1 59 0
 210 0040 05B0     		add	sp, sp, #20
 211              		.cfi_def_cfa_offset 4
 212              		@ sp needed
 213 0042 5DF804FB 		ldr	pc, [sp], #4
 214              	.L12:
 215 0046 00BF     		.align	2
 216              	.L11:
 217 0048 4C000000 		.word	.LC4
 218              		.cfi_endproc
 219              	.LFE66:
 220              		.size	lcd_test_print, .-lcd_test_print
 221              		.section	.text.lcd_print,"ax",%progbits
 222              		.align	2
 223              		.global	lcd_print
 224              		.thumb
 225              		.thumb_func
 226              		.type	lcd_print, %function
ARM GAS  C:\Users\Schuyler\AppData\Local\Temp\ccdbj0Ku.s 			page 6


 227              	lcd_print:
 228              	.LFB67:
  60:lcd_manager.c **** 
  61:lcd_manager.c **** void lcd_print(char8* string_val) {
 229              		.loc 1 61 0
 230              		.cfi_startproc
 231              		@ args = 0, pretend = 0, frame = 0
 232              		@ frame_needed = 0, uses_anonymous_args = 0
 233              	.LVL18:
 234 0000 08B5     		push	{r3, lr}
 235              		.cfi_def_cfa_offset 8
 236              		.cfi_offset 3, -8
 237              		.cfi_offset 14, -4
  62:lcd_manager.c **** 	LCD_PrintString(string_val);
 238              		.loc 1 62 0
 239 0002 FFF7FEFF 		bl	LCD_PrintString
 240              	.LVL19:
 241 0006 08BD     		pop	{r3, pc}
 242              		.cfi_endproc
 243              	.LFE67:
 244              		.size	lcd_print, .-lcd_print
 245              		.global	count
 246              		.section	.rodata.str1.4,"aMS",%progbits,1
 247              		.align	2
 248              	.LC0:
 249 0000 466F726D 		.ascii	"Formula Racing\000"
 249      756C6120 
 249      52616369 
 249      6E6700
 250 000f 00       		.space	1
 251              	.LC1:
 252 0010 43686172 		.ascii	"Charging Circuit\000"
 252      67696E67 
 252      20436972 
 252      63756974 
 252      00
 253 0021 000000   		.space	3
 254              	.LC2:
 255 0024 563A2030 		.ascii	"V: 000.0V E:0000\000"
 255      30302E30 
 255      5620453A 
 255      30303030 
 255      00
 256 0035 000000   		.space	3
 257              	.LC3:
 258 0038 433A2030 		.ascii	"C: 000.0A T: 00C\000"
 258      30302E30 
 258      4120543A 
 258      20303043 
 258      00
 259 0049 000000   		.space	3
 260              	.LC4:
 261 004c 25303364 		.ascii	"%03d\000"
 261      00
 262              		.bss
 263              		.align	2
 264              		.type	count, %object
ARM GAS  C:\Users\Schuyler\AppData\Local\Temp\ccdbj0Ku.s 			page 7


 265              		.size	count, 4
 266              	count:
 267 0000 00000000 		.space	4
 268              		.text
 269              	.Letext0:
 270              		.file 2 "c:\\program files (x86)\\cypress\\psoc creator\\4.1\\psoc creator\\import\\gnu\\arm\\5.4.
 271              		.file 3 "c:\\program files (x86)\\cypress\\psoc creator\\4.1\\psoc creator\\import\\gnu\\arm\\5.4.
 272              		.file 4 "Generated_Source\\PSoC5/cytypes.h"
 273              		.file 5 "Generated_Source\\PSoC5/core_cm3.h"
 274              		.file 6 "Generated_Source\\PSoC5/LCD.h"
 275              		.file 7 "Generated_Source\\PSoC5/CyLib.h"
 276              		.file 8 "c:\\program files (x86)\\cypress\\psoc creator\\4.1\\psoc creator\\import\\gnu\\arm\\5.4.